(dp1
S'output'
p2
S"<type 'exceptions.SyntaxError'> invalid syntax (db_wizard.py, line 25)"
p3
sS'layer'
p4
S'/home/www-data/web2py/applications/heiup/models/db_wizard.py'
p5
sS'code'
p6
S'# -*- coding: utf-8 -*-\n\'\'\'\nCopyright (c) 2015 Heidelberg University Library\nDistributed under the GNU GPL v3. For full terms see the file\nLICENSE.md\n\'\'\'\n\n########################################\n\ndb.define_table("authors",\n                Field("author_id", "integer"),\n                Field("submission_id", "integer"),\n                Field("primary_contact", "integer"),\n                Field("seq", "integer"),\n                Field("first_name", "string"),\n                Field("middle_name", "string"),\n                Field("last_name", "string"),\n                Field("suffix", "string"),\n                Field("country", "string"),\n                Field("email", "string"),\n                Field("url", "string"),\n                Field("user_group_id", "integer"),\n                Field("include_in_browse", "integer"),\n                migrate=False\n                )s\n\n\ndb.define_table("author_settings",\n                Field("author_id", "integer"),\n                Field("locale", "string"),\n                Field("setting_name", "string"),\n                Field("setting_value", "string"),\n                Field("setting_type", "string"),\n                migrate=False\n                )\n\n\ndb.define_table("submission_chapters",\n                Field("chapter_id", "integer"),\n                Field("submission_id", \'integer\'),\n                Field("chapter_seq", \'integer\'),\n                migrate=False\n                )\n\n\ndb.define_table("submission_chapter_settings",\n                Field("chapter_id", "integer"),\n                Field("locale", "string"),\n                Field("setting_name", "string"),\n                Field("setting_value", "string"),\n                Field("setting_type", "string"),\n                migrate=False\n                )\ndb.define_table("press_settings",\n                Field("press_id", "integer"),\n                Field("locale", "string"),\n                Field("setting_name", "string"),\n                Field("setting_value", "string"),\n                Field("setting_type", "string"),\n                migrate=False\n                )\n\ndb.define_table("presses",\n                Field("press_id", "integer"),\n                Field("path", "string"),\n                Field("seq", "integer"),\n                Field("primary_locale", "string"),\n                Field("enabled", "integer"),\n                primarykey=[\'press_id\'],\n                migrate=False\n                )\ndb.define_table("publication_dates",\n                Field("publication_date_id", "integer"),\n                Field("publication_format_id", "integer"),\n                Field("role", "string"),\n                Field("date", "string"),\n                Field("date_format", "string"),\n                migrate=False\n                )\n\ndb.define_table("published_submissions",\n                Field("pub_id", "integer"),\n                Field("submission_id", "integer"),\n                Field(\n                    "date_published",\n                    "datetime",\n                    requires=IS_DATETIME(\n                        format="%Y-%m-%d %H:%M:%S")),\n                Field("audience", "string"),\n                Field("audience_range_qualifier", "string"),\n                Field("audience_range_from", "string"),\n                Field("audience_range_to", "string"),\n                Field("audience_range_exact", "string"),\n                Field("cover_image", "string"),  # TODO coverimage versoppelt\n                primarykey=[\'pub_id\'],\n                migrate=False\n                )\n\n\ndb.define_table("publication_formats",\n                Field("publication_format_id", "integer"),\n                Field("submission_id", "integer"),\n                Field("physical_format", "integer"),\n                Field("entry_key", "string"),\n                Field("seq", "double"),\n                Field("file_size", "string"),\n                Field("front_matter", "string"),\n                Field("back_matter", "string"),\n                Field("height", "string"),\n                Field("height_unit_code", "string"),\n                Field("width", "string"),\n                Field("width_unit_code", "string"),\n                Field("thickness", "string"),\n                Field("thickness_unit_code", "string"),\n                Field("weight", "string"),\n                Field("weight_unit_code", "string"),\n                Field("product_composition_code", "string"),\n                Field("product_form_detail_code", "string"),\n                Field("country_manufacture_code", "string"),\n                Field("imprint", "string"),\n                Field("product_availability_code", "string"),\n                Field("technical_protection_code", "string"),\n                Field("returnable_indicator_code", "string"),\n                Field("is_approved", "integer"),\n                Field("is_available", "integer"),\n                primarykey=[\'publication_format_id\'],\n                migrate=False\n                )\n\ndb.define_table("publication_format_settings",\n                Field("publication_format_id", "integer"),\n                Field("locale", "string"),\n                Field("setting_name", "string"),\n                Field("setting_value", "string"),\n                Field("setting_type", "string"),\n                primarykey=[\'publication_format_id\', \'locale\', \'setting_name\'],\n                migrate=False\n                )\ndb.define_table("series_settings",\n                Field("series_id", "integer"),\n                Field("locale", "string"),\n                Field("setting_name", "string"),\n                Field("setting_value", "string"),\n                Field("setting_type", "string"),\n                migrate=False\n                )\n\n\ndb.define_table("submissions",\n                Field("submission_id", "integer"),\n                Field("locale", "string"),\n                Field("user_id", "integer"),\n                Field("context_id", "integer"),\n                Field("series_id", "integer"),\n                Field("series_position", "string"),\n                Field("edited_volume", "integer"),\n                Field("language", "string"),\n                Field("comments_to_ed", "string"),\n                Field("date_submitted", "string"),\n                Field(\n                    "last_modified",\n                    "datetime",\n                    requires=IS_DATETIME(\n                        format="%Y-%m-%d %H:%M:%S")),\n                Field(\n                    "date_status_modified",\n                    "datetime",\n                    requires=IS_DATETIME(\n                        format="%Y-%m-%d %H:%M:%S")),\n                Field("status", "integer"),\n                Field("submission_progress", "integer"),\n                Field("pages", "string"),\n                Field("fast_tracked", "integer"),\n                Field("hide_author", "integer"),\n                Field("comments_status", "integer"),\n                Field("stage_id", "integer"),\n                primarykey=[\'submission_id\'],\n                migrate=False\n                )\n\ndb.define_table("submission_settings",\n                Field("submission_id", "integer"),\n                Field("locale", "string"),\n                Field("setting_name", "string"),\n                Field("setting_value", "string"),\n                Field("setting_type", "string"),\n                primarykey=[\'submission_id\'],\n                migrate=False\n                )\ndb.define_table("submission_file_settings",\n                Field("file_id", "integer"),\n                Field("locale", "string"),\n                Field("setting_name", "string"),\n                Field("setting_value", "string"),\n                Field("setting_type", "string"),\n                migrate=False,\n                )\n\ndb.define_table(\'submission_files\',\n                Field(\'file_id\', \'integer\'),\n                Field(\'revision\', \'integer\'),\n                Field(\'source_file_id\', \'integer\'),\n                Field(\'source_revision\', \'integer\'),\n                Field(\'submission_id\', \'integer\'),\n                Field(\'file_type\'),\n                Field(\'genre_id\', \'integer\'),\n                Field(\'file_size\', \'integer\'),\n                Field(\'original_file_name\'),\n                Field(\'file_stage\', \'integer\'),\n                Field(\'direct_sales_price\'),\n                Field(\'sales_type\'),\n                Field(\'viewable\', \'integer\'),\n                Field(\'date_uploaded\', \'datetime\'),\n                Field(\'date_modified\', \'datetime\'),\n                Field(\'user_group_id\', \'integer\'),\n                Field(\'uploader_user_id\', \'integer\'),\n                Field(\'assoc_type\', \'integer\'),\n                Field(\'assoc_id\', \'integer\'),\n\n                migrate=False\n                )\n\ndb.define_table("identification_codes",\n                Field("identification_code_id", "integer"),\n                Field("publication_format_id", "integer"),\n                Field("code", "integer"),\n                Field("value", "string"),\n                migrate=False\n                )\n\ndb.define_table("user_group_settings",\n                Field("user_group_id", "integer"),\n                Field("locale", "string"),\n                Field("setting_name", "string"),\n                Field("setting_value", "string"),\n                Field("setting_type", "string"),\n                migrate=False\n                )\n\'\'\'\n# read omp values\nsubmission_id       = request.args(0) if  request.args(0) else 0\nerror_code          = T(\'in OMP nicht angegeben\')\nlocale_pre= db(db.submissions.submission_id==submission_id).select(db.submissions.locale).first()\nlocale = locale_pre[\'locale\'] if locale_pre else \'de_DE\'\n\npublisher_record    = db(db.press_settings.setting_name==\'publisher\').select(db.press_settings.setting_value).first()\npublisher           = publisher_record[\'setting_value\'] if publisher_record else error_code\n\npublication_formats = db(db.publication_formats.submission_id==submission_id).select(db.publication_formats.publication_format_id).first()\nisbn_pre            = db(db.identification_codes.publication_format_id==publication_formats[\'publication_format_id\']).select(db.identification_codes.value).first() if publication_formats else None #TODO add code=15 oder 24\nisbn                = isbn_pre[\'value\'] if isbn_pre else error_code\n#\n\nauthors_pre= db(db.authors.submission_id==submission_id).select(db.authors.last_name,db.authors.first_name, db.authors.user_group_id,db.authors.country, db.authors.author_id)\nauthors_surname_firstname = \'\'\nfor i in authors_pre:\n    authors_surname_firstname += i.last_name+\', \'+i.first_name+ \' \'\n\nauthors_firstname_surname =  \'\'\nfor i in authors_pre:\n    authors_firstname_surname += i.first_name+\' \'+i.last_name+ \' \'\n\n\ncontributor_role = \'\' # locale db.authors.group_id== user_group_settings.locale==locale & , davon setting_value\ncountry = \'\'\n#for i in authors_pre:\n#    country += i.country\n\n#\n\ntitle_pre = db((db.submission_settings.submission_id==submission_id) & (db.submission_settings.setting_name==\'title\') & (db.submission_settings.locale==locale)).select(db.submission_settings.setting_value).first()\ntitle = title_pre[\'setting_value\'] if title_pre else error_code\n\nsub_title_pre = db((db.submission_settings.submission_id==submission_id) & (db.submission_settings.setting_name==\'subtitle\') & (db.submission_settings.locale==locale)).select(db.submission_settings.setting_value).first()\nsub_title = sub_title_pre[\'setting_value\'] if sub_title_pre else error_code\n\nseries_id_pre = db(db.submissions.submission_id==submission_id).select(db.submissions.series_id).first()\nseries_id = series_id_pre[\'series_id\'] if series_id_pre else 0\nseries_title_pre = db((db.series_settings.series_id==series_id) & (db.series_settings.locale==locale) & (db.series_settings.setting_name==\'title\')).select(db.series_settings.setting_value).first()\nseries_title = series_title_pre[\'setting_value\'] if series_title_pre else error_code\n\n\n#TOTO je nach format sollte format artikel_format_pre ausgelesen werden\nartikel_format_pre = db((db.publication_format_settings.locale==locale) & (db.publication_format_settings.setting_value==\'Hardcover\')).select(db.publication_format_settings.publication_format_id).first()\n\nartikel_format =  artikel_format_pre[\'publication_format_id\'] if artikel_format_pre else 0\nartikel_format_pre = db((db.publication_formats.submission_id == submission_id) & (db.publication_formats.publication_format_id==artikel_format)).select(db.publication_formats.ALL).first()\nartikel_format = str(artikel_format_pre[\'height\']) + \' X\' +str(artikel_format_pre[\'width\']) + \' X\' + str(artikel_format_pre[\'thickness\'])  if artikel_format_pre else error_code\n\nabstract_pre = db((db.submission_settings.submission_id==submission_id) & (db.submission_settings.setting_name==\'abstract\') & (db.submission_settings.locale==locale)).select(db.submission_settings.setting_value).first()\nabstract = abstract_pre[\'setting_value\'] if abstract_pre else error_code\n\nauthor_id_pre = db((db.authors.submission_id==submission_id) & (db.authors.primary_contact==1)).select(db.authors.author_id).first() #for primary contact\nauthor_id = author_id_pre[\'author_id\'] if author_id_pre else None\nauthor_biography_pre = db((db.author_settings.author_id==author_id) & (db.author_settings.locale==locale) & (db.author_settings.setting_name==\'biography\')).select(db.author_settings.setting_value).first()\nauthor_biography = author_biography_pre[\'setting_value\'] if author_biography_pre else error_code\n\n\n\n\n\n#\n\n\ndb.define_table(\'t_onix_additionals\',\n    Field(\'submission_id\', type=\'integer\',readable=True,writable=False,default=request.args(0),label=T(\'Submission id\')),\n    Field(\'omp_publisher\',\'string\',default=publisher,writable=False,readable=True),\n    Field(\'omp_isbn\',\'string\',notnull=True,default=isbn,label=T(\'ISBN-13\'),writable=False),\n    Field(\'f_verlagsverkehrsnummer\', type=\'integer\', label=T(\'Verlagsverkehrsnummer\'),writable=False), # TODO anja liefert daten als\n    Field(\'f_zusatz_isbn_ean\', type=\'string\', notnull=False,   label=T(\'ISBN / EAN Weitere Ausgabe\')), #TODO the same as omp_isbn\n    Field(\'f_verlags_bestell_nr\', type=\'string\', label=T(\'Verlags Bestell Nr.\')),\n    Field(\'omp_autor_surname_firstname\', type=\'string\', default=authors_surname_firstname, label=T(\'Autoren\'),writable=False),#Sammelband: Herausgeber, Monographie Authoren\n    #Field(\'omp_contributor_role\',type=\'string\', label=T(\'Contributor Role\'), default=contributor_role),\n    #Field(\'omp_autor_firstname_surname\', type=\'string\', default=authors_firstname_surname, label=T(\'Autoren : Vorname Nachname )\'),writable=False),#Sammelband: Herausgeber, Monographie Authoren\n    #Field(\'omp_autor_firstname\',\'string\'),\n    #Field(\'omp_autor_surname\',\'string\'),\n    #Field(\'omp_autor_country\',\'string\', default=country),\n    #Field (\'omp_biography\', \'text\', default=author_biography),\n    Field(\'f_sende_datum\', type=\'date\', label=T(\'Sendedatum\')),  #TODO Date format 20150101\n    Field(\'omp_title\', type=\'string\', default=title, label=T(\'Titel\'),writable=False),#Sammelband: Herausgeber, Monographie Authoren\n    Field(\'f_medienbeilage\', type=\'string\', label=T(\'Medienbeilage z.B "mit CD-ROM"\'),default=""),\n    Field(\'omp_sub_title\', type=\'string\', default=sub_title, label=T(\'Untertitel\'),writable=False),#Sammelband: Herausgeber, Monographie Authoren\n    Field(\'f_belletristik\', type=\'string\', label=T(\'Titel der Original Ausgabe\')),\n    Field(\'f_weitere_angaben\', type=\'string\', label=T(\'Weitere Angaben\')),\n    Field(\'f_produktionsjahr\', type=\'string\', label=T(\'Produktionsjahr\')),\n    Field(\'f_zusatzinformationen\', type=\'string\', label=T(\'Zusatzinformationen\')),\n    Field(\'omp_language\',"string",label=T(\'Sprache\'),default=locale, writable=False),\n    Field(\'omp_series\',"string",label=T(\'Reihe\'),default=series_title, writable=False),\n    Field(\'omp_series_position\',"string",label=T(\'Band Nr.\'),default=\'XXXXXX\', writable=False), #TODO Series_position in submissions\n    Field(\'f_teilband\', type=\'string\', label=T(\'Teilband\')),\n    Field(\'f_auflage\', type=\'string\', notnull=True,label=T(\'Auflage\')),\n    Field(\'f_laufzeit_in_minuten\', type=\'string\',label=T(\'Laufzeit In Minuten\')),\n    Field(\'f_umfang\', type=\'string\', notnull=True, label=T(\'Umfang\')),\n    Field(\'f_abbildungen\', type=\'string\', label=T(\'Abbildungen\')),\n    Field(\'omp_artikel_format\', type=\'string\', label=T(\'Abbildungen\'), default=\'\', writable=False),\n    Field(\'omp_amount\',"string",label=T(\'Mengen Angabe\'),default=\'XXXXXX\', writable=False), #TODO in publication_formats beim hardcover , weight\n    Field(\'f_verpackungs_angaben_in_mm\', type=\'string\',label=T(\'Verpackungsangaben In mm\')),\n    Field(\'f_fsk_or_usk_angabe\', type=\'string\', notnull=True,label=T(\'FSK / USK Angabe\')),\n    Field(\'f_altersempfehlung\', type=\'string\', notnull=True, default=\'\', label=T(\'Altersempfehlung\')),\n    Field(\'f_warnhinweis\', type=\'string\', notnull=True,label=T(\'Warnhinweis\')),\n    Field(\'f_warengruppe_lt_vlb\', type=\'string\',label=T(\'Warengruppe lt. VLB\')),\n    Field(\'omp_product_form\', type=\'string\', label=T(\'Produktform/Medienart\'), writable=True, notnull=True),#TODO  falls in omp gibt : catalog . product composition: product detail\n    Field(\'f_number\', type=\'integer\',label=T(\'Anz. der Medien\')),\n    Field(\'f_weiter_angaben\', type=\'string\', notnull=False,  label=T(\'weitere Angaben zur Produktform\')),\n    Field(\'f_auslieferungstermin\', type=\'string\', notnull=True,  label=T(\'Auslieferungstermin\')),\n    Field(\'omp_first_selling_day\',\'string\', label=T(\'Erstverkaufstag\')),#publication_formats ????\n    Field(\'f_ladenpreis_euro_de\', type=\'double\', notnull=True, label=T(\'Ladenpreis EURO DE\')),\n    Field(\'f_ladenpreis_euro_at\', type=\'double\', notnull=True,label=T(\'Ladenpreis EURO AT\')),\n    Field(\'f_mwst\', type=\'double\', notnull=True,label=T(\'Mwst.\')),\n    Field(\'f_vorbestelldatum\', type=\'date\',label=T(\'Vorbestelldatum\')),\n    Field(\'f_vorbestellpreis_euro_de\', type=\'double\', notnull=True,label=T(\'Vorbestellpreis EURO DE\')),\n    Field(\'f_vorbestellpreis_euro_at\', type=\'double\', notnull=True,label=T(\'Vorbestellpreis EURO AT\')),\n    Field(\'f_vorbestellpreis_euro_sfr\', type=\'double\', notnull=True,label=T(\'Vorbestellpreis EURO SFR\')),\n    Field(\'omp_abstract\', type=\'text\', default=abstract, label=T(\'Kurztext\'),writable=False), #abstract\n    Field(\'f_klappentext\', type=\'string\',label=T(\'Klappentext\')),\n    Field(\'f_content_directory\', type=\'string\',label=T(\'Inhaltsverzeichnis\')),\n    Field(\'f_tracklist\', type=\'string\',label=T(\'Tracklist bei Musik\')),\n    Field(\'f_leseprobe\', type=\'text\',label=T(\'Leseprobe\')),\n    Field(\'f_\', type=\'string\',label=T(\'\')),\n    Field(\'omp_author_biography\', type=\'text\', default=author_biography, label=T(\'Portr\xc3\xa4t\'),writable=False), #abstract\n    Field(\'f_zolltarifnummer_verzeihnis\', type=\'string\', notnull=True,    label=T(\'Zolltarifnummer Verzeihnis\')),\n    Field(\'f_warennummer_ztn\', type=\'string\', notnull=True,label=T(\'Warennummer Ztn\')),\n    Field(\'f_ursprungsland\', type=\'string\', notnull=True,label=T(\'Ursprungsland\')),\n    Field(\'f_cover_image\', type=\'upload\',label=T(\'Cover Image\')),\n    Field(\'f_klassifizierung_hochschulschriften\', type=\'string\', notnull=True,   label=T(\'Klassifizierung Hochschulschriften\')),\n    Field(\'f_mehrbaendiger_werke\', type=\'string\', notnull=True,  label=T(\'Mehrbaendiger Werke\')),\n    Field(\'f_issn\', type=\'string\', notnull=True, label=T(\'ISSN\')),\n    format=\'%(f_verlagsverkehrsnummer)s\',\n    migrate=settings.migrate,\n    #redefine=True\n)\n\n\ndb.define_table("t_knv_metadata",\n     Field(\'submission_id\', type=\'integer\',readable=True,writable=False,default=request.args(0),\n          label=T(\'Submission id\')),\n     Field("isbn","integer", label=T(\'ISBN\'), requires=IS_LENGTH(minsize=13,maxsize=13),notnull=True),\n     Field("buchtitel","string",label=T(\'Buchtitel (OMP)\'),default=title,writable=True, requires=IS_LENGTH(maxsize=60)),\n     Field("anz_teile","integer", default=1,label=T(\'Anz. Teile\'),writable=False),\n     Field("verlagsname","string", default=T("Heidelberg University Publishing"),label=T(\'Verlagsname\'),writable=False),\n     Field("gln","integer",label=T(\'GLN\'), writable=False), #TODO anja liefert die daten von nv, ist eine fixe nr.\n     Field("bindeart","string", label=T(\'Bindeart\') ,default=T(\'HB\'),  requires=IS_IN_SET((\'HB\',\'PB\'))),\n     Field("anz_rillungen","integer",default=T(\'2\'),label=T(\'Anz. Rillungen\'), requires=IS_IN_SET((\'2\',\'4\'))),\n     Field("kapitalband","string",label=T(\'Kapitalband\'), requires=IS_IN_SET((\'white\',\'none\'))),\n     Field("rueckenart","string",label=T(\'R\xc3\xbcckenart\'), requires=IS_IN_SET((\'square\',\'round\')), default=\'round\'),\n     Field("ansichtsexemplar","string", default="yes",label=T(\'Ansichtsexemplar\'),requires=IS_IN_SET((\'yes\',\'no\'))),\n     Field("laendercode","string",default="DE", label=T(\'L\xc3\xa4ndercode\'),writable=False),\n     Field("adresszeile1","string",default=" ",label=T(\'Adresszeile1\'),writable=False),\n     Field("adresszeile2","string",default=T(\'Heidelberg University Publishing\'),label=T(\'Adresszeile2\'),writable=False),\n     Field("adresszeile3","string",default=T(\'c/o Universit\xc3\xa4tsbibliothek Heidelberg\'),label=T(\'Adresszeile3\'),writable=False),\n     Field("ort","string",default="Heidelberg",label=T(\'Ort\'),writable=False),\n     Field("plz","integer",default="69047",label=T(\'PLZ\'), writable=False),\n     Field("strasse_und_nr","string",default="Pl\xc3\xb6ck 107-109",label=T(\'Stra\xc3\x9fe und Nr.\'),writable=False),\n     Field("postfach","string",default="105749",label=T(\'Postfach\'),writable=False),\n     Field("speicherung","string",default="yes",label=T(\'Speicherung\'),requires=IS_IN_SET((\'yes\',\'temp\'))),\n     Field("dateiname_pdf_cover","upload",label=T(\'Dateiname PDF (cover)\')),#TODO isbdn ohne bindestirche .cover.pdf automatisch generieren , ein neues feld\n     Field("teilnummer","integer",label=T(\'Teilnummer\'),default=1, writable=False),\n     Field("anzahl_seiten","integer",label=T(\'Anzahl Seiten\'),requires=IS_IN_SET((1,2)), default=2),\n     Field("druckfarbe","string",label=T(\'Druckfarbe\'), requires=IS_IN_SET((\'4/0\',\'4/4\')) ),\n     Field("pruefung_trimbox","string",label=T(\'Pr\xc3\xbcfung Trimbox\'), requires=IS_IN_SET((\'yes\',\'no\'))),\n     Field("prueftoleranz","string",label=T(\'Pr\xc3\xbcftoleranz\'), default=4),\n     Field("papiertyp","string",label=T(\'Papiertyp\'), requires=IS_IN_SET((\'cov-1\',\'cov-2\',\'cov-5\')) ),\n     Field("laminierungsart","string",label=T(\'Laminierungsart\'), requires=IS_IN_SET((\'gloss\',\'matte\'))),\n     Field("barcode_position","string",default=\'bottom right\', label=T(\'Barcode Position\'), requires=IS_IN_SET((\'bottom right\',"bottom-center","bottom-left","front-bottom-left","front-bottom-center","front bottom-right"))),\n     Field("dateiname_pdf_innerwork_","upload",label=T(\'Dateiname PDF (innerwork)\')),#TODO isbdn ohne bindestirche .innerwork.pdf automatisch generieren , ein neues feld\n     Field("teilnummer","integer",default=1, label=T(\'Teilnummer\')),\n     Field("anzahl_seiten","integer",label=T(\'Anzahl Seiten\'), writable=False),\n     Field("farbraum","string",label=T(\'Farbraum\'),requires=IS_IN_SET(("Graustufen","CMYK"))),\n     Field("anzahl_farbseiten","integer",label=T(\'Anzahl Farbseiten\')),\n     Field("breite_der_trimbox","integer",label=T(\'Breite der Trimbox\')),\n     Field("hoehe_der_trimbox","integer",label=T(\'H\xc3\xb6he der Trimbox\')),\n     Field("pruefung_trimbox","string",label=T(\'Pr\xc3\xbcfung Trimbox\'),requires=IS_IN_SET(("yes","no"))),\n     Field("prueftoleranz","double",label=T(\'Pr\xc3\xbcftoleranz\')),\n     Field("f_papiertyp","string",label=T(\'Papiertyp\'),requires=IS_IN_SET(("iw-2", "iw-3", "iw-10", "iw-12", "iw-13", "iw-15"))),\n     Field("letzte_seite","string",default="yes",label=T(\'Letzte Seite\'),requires=IS_IN_SET((\'yes\',\'no\'))),\n     migrate=settings.migrate,\n     redefine=True\n)\n\'\'\'\nrequest_client = \'\'\nif request.client:\n    request_client_sp = request.client.split(\'.\')\n    if len(request_client_sp) == 4:\n        request_client = request_client_sp[\n            0] + \'.\' + request_client_sp[1] + \'.\' + request_client_sp[2] + \'.xxx\'\n\ndb.define_table(\'t_usage_statistics\',\n                Field(\'time_stamp\', \'datetime\', default=request.now),\n                Field(\'client_ip\', \'string\', default=request_client),\n                Field(\n                    \'request_controller\',\n                    \'string\',\n                    default=request.controller),\n                Field(\'request_function\', \'string\', default=request.function),\n                Field(\n                    \'request_extension\',\n                    \'string\',\n                    default=request.extension),\n                Field(\'request_ajax\', \'string\', default=request.ajax),\n                Field(\'request_args\', \'string\', default=request.args),\n                Field(\'request_vars\', \'string\', default=request.vars),\n                Field(\'request_view\', \'string\', default=request.view),\n                Field(\'request_http_user_agent\', \'string\',\n                      default=request.env.http_user_agent),\n                Field(\n                    \'request_language\',\n                    \'string\',\n                    default=request.env.http_accept_language),\n                Field(\'description\', \'text\'),\n                migrate=False,\n                )\n'
p7
sS'snapshot'
p8
(dp9
S'exception'
p10
(dp11
S'__getslice__'
p12
S"<method-wrapper '__getslice__' of exceptions.SyntaxError object>"
p13
sS'text'
p14
S"'                )s\\n'"
p15
sS'__str__'
p16
S"<method-wrapper '__str__' of exceptions.SyntaxError object>"
p17
sS'__reduce__'
p18
S'<built-in method __reduce__ of exceptions.SyntaxError object>'
p19
sS'__dict__'
p20
S'{}'
p21
sS'__sizeof__'
p22
S'<built-in method __sizeof__ of exceptions.SyntaxError object>'
p23
sS'__init__'
p24
S"<method-wrapper '__init__' of exceptions.SyntaxError object>"
p25
sS'__setattr__'
p26
S"<method-wrapper '__setattr__' of exceptions.SyntaxError object>"
p27
sS'__reduce_ex__'
p28
S'<built-in method __reduce_ex__ of exceptions.SyntaxError object>'
p29
sS'__new__'
p30
S'<built-in method __new__ of type object>'
p31
sS'__format__'
p32
S'<built-in method __format__ of exceptions.SyntaxError object>'
p33
sS'__class__'
p34
S"<type 'exceptions.SyntaxError'>"
p35
sS'filename'
p36
S"'/home/www-data/web2py/applications/heiup/models/db_wizard.py'"
p37
sS'lineno'
p38
S'25'
p39
sS'msg'
p40
S"'invalid syntax'"
p41
sS'__doc__'
p42
S"'Invalid syntax.'"
p43
sS'__getitem__'
p44
S"<method-wrapper '__getitem__' of exceptions.SyntaxError object>"
p45
sS'__setstate__'
p46
S'<built-in method __setstate__ of exceptions.SyntaxError object>'
p47
sS'__getattribute__'
p48
S"<method-wrapper '__getattribute__' of exceptions.SyntaxError object>"
p49
sS'print_file_and_line'
p50
S'None'
p51
sS'args'
p52
S"('invalid syntax', ('/home/www-data/web2py/applications/heiup/models/db_wizard.py', 25, 18, '                )s\\n'))"
p53
sS'__subclasshook__'
p54
S'<built-in method __subclasshook__ of type object>'
p55
sS'offset'
p56
S'18'
p57
sS'__unicode__'
p58
S'<built-in method __unicode__ of exceptions.SyntaxError object>'
p59
sS'__delattr__'
p60
S"<method-wrapper '__delattr__' of exceptions.SyntaxError object>"
p61
sS'__repr__'
p62
S"<method-wrapper '__repr__' of exceptions.SyntaxError object>"
p63
sS'__hash__'
p64
S"<method-wrapper '__hash__' of exceptions.SyntaxError object>"
p65
ssS'evalue'
p66
S'invalid syntax (db_wizard.py, line 25)'
p67
sS'request'
p68
cgluon.html
XML_unpickle
p69
(S's<w\x00\x00<div><table><tr><td style="font-weight:bold;vertical-align:top;">ajax</td><td style="vertical-align:top;">:</td><td><div>False</div></td></tr><tr><td style="font-weight:bold;vertical-align:top;">application</td><td style="vertical-align:top;">:</td><td><div>heiup</div></td></tr><tr><td style="font-weight:bold;vertical-align:top;">args</td><td style="vertical-align:top;">:</td><td><div><table></table></div></td></tr><tr><td style="font-weight:bold;vertical-align:top;">cid</td><td style="vertical-align:top;">:</td><td><div>None</div></td></tr><tr><td style="font-weight:bold;vertical-align:top;">client</td><td style="vertical-align:top;">:</td><td><div>147.142.85.51</div></td></tr><tr><td style="font-weight:bold;vertical-align:top;">controller</td><td style="vertical-align:top;">:</td><td><div>catalog</div></td></tr><tr><td style="font-weight:bold;vertical-align:top;">cookies</td><td style="vertical-align:top;">:</td><td><div><table><tr><td style="font-weight:bold;vertical-align:top;">OMPSID</td><td style="vertical-align:top;">:</td><td><div>vtgo5scljp5nm8d4lh6lo28m47<table><tr><td style="font-weight:bold;vertical-align:top;">comment</td><td style="vertical-align:top;">:</td><td><div></div></td></tr><tr><td style="font-weight:bold;vertical-align:top;">domain</td><td style="vertical-align:top;">:</td><td><div></div></td></tr><tr><td style="font-weight:bold;vertical-align:top;">expires</td><td style="vertical-align:top;">:</td><td><div></div></td></tr><tr><td style="font-weight:bold;vertical-align:top;">httponly</td><td style="vertical-align:top;">:</td><td><div></div></td></tr><tr><td style="font-weight:bold;vertical-align:top;">max-age</td><td style="vertical-align:top;">:</td><td><div></div></td></tr><tr><td style="font-weight:bold;vertical-align:top;">path</td><td style="vertical-align:top;">:</td><td><div></div></td></tr><tr><td style="font-weight:bold;vertical-align:top;">secure</td><td style="vertical-align:top;">:</td><td><div></div></td></tr><tr><td style="font-weight:bold;vertical-align:top;">version</td><td style="vertical-align:top;">:</td><td><div></div></td></tr></table></div></td></tr><tr><td style="font-weight:bold;vertical-align:top;">session_id_admin</td><td style="vertical-align:top;">:</td><td><div>147.142.85.51-09bb73e9-663f-47af-b6d5-850eb9d2730e<table><tr><td style="font-weight:bold;vertical-align:top;">comment</td><td style="vertical-align:top;">:</td><td><div></div></td></tr><tr><td style="font-weight:bold;vertical-align:top;">domain</td><td style="vertical-align:top;">:</td><td><div></div></td></tr><tr><td style="font-weight:bold;vertical-align:top;">expires</td><td style="vertical-align:top;">:</td><td><div></div></td></tr><tr><td style="font-weight:bold;vertical-align:top;">httponly</td><td style="vertical-align:top;">:</td><td><div></div></td></tr><tr><td style="font-weight:bold;vertical-align:top;">max-age</td><td style="vertical-align:top;">:</td><td><div></div></td></tr><tr><td style="font-weight:bold;vertical-align:top;">path</td><td style="vertical-align:top;">:</td><td><div></div></td></tr><tr><td style="font-weight:bold;vertical-align:top;">secure</td><td style="vertical-align:top;">:</td><td><div></div></td></tr><tr><td style="font-weight:bold;vertical-align:top;">version</td><td style="vertical-align:top;">:</td><td><div></div></td></tr></table></div></td></tr><tr><td style="font-weight:bold;vertical-align:top;">session_id_heiup</td><td style="vertical-align:top;">:</td><td><div>147.142.85.51-c4437609-5ac0-4650-b6c5-f8c86157454c<table><tr><td style="font-weight:bold;vertical-align:top;">comment</td><td style="vertical-align:top;">:</td><td><div></div></td></tr><tr><td style="font-weight:bold;vertical-align:top;">domain</td><td style="vertical-align:top;">:</td><td><div></div></td></tr><tr><td style="font-weight:bold;vertical-align:top;">expires</td><td style="vertical-align:top;">:</td><td><div></div></td></tr><tr><td style="font-weight:bold;vertical-align:top;">httponly</td><td style="vertical-align:top;">:</td><td><div></div></td></tr><tr><td style="font-weight:bold;vertical-align:top;">max-age</td><td style="vertical-align:top;">:</td><td><div></div></td></tr><tr><td style="font-weight:bold;vertical-align:top;">path</td><td style="vertical-align:top;">:</td><td><div></div></td></tr><tr><td style="font-weight:bold;vertical-align:top;">secure</td><td style="vertical-align:top;">:</td><td><div></div></td></tr><tr><td style="font-weight:bold;vertical-align:top;">version</td><td style="vertical-align:top;">:</td><td><div></div></td></tr></table></div></td></tr><tr><td style="font-weight:bold;vertical-align:top;">session_id_ubhd_ompportal</td><td style="vertical-align:top;">:</td><td><div>147.142.85.51-7baae836-bf0a-48b2-9379-2364d877c2af<table><tr><td style="font-weight:bold;vertical-align:top;">comment</td><td style="vertical-align:top;">:</td><td><div></div></td></tr><tr><td style="font-weight:bold;vertical-align:top;">domain</td><td style="vertical-align:top;">:</td><td><div></div></td></tr><tr><td style="font-weight:bold;vertical-align:top;">expires</td><td style="vertical-align:top;">:</td><td><div></div></td></tr><tr><td style="font-weight:bold;vertical-align:top;">httponly</td><td style="vertical-align:top;">:</td><td><div></div></td></tr><tr><td style="font-weight:bold;vertical-align:top;">max-age</td><td style="vertical-align:top;">:</td><td><div></div></td></tr><tr><td style="font-weight:bold;vertical-align:top;">path</td><td style="vertical-align:top;">:</td><td><div></div></td></tr><tr><td style="font-weight:bold;vertical-align:top;">secure</td><td style="vertical-align:top;">:</td><td><div></div></td></tr><tr><td style="font-weight:bold;vertical-align:top;">version</td><td style="vertical-align:top;">:</td><td><div></div></td></tr></table></div></td></tr><tr><td style="font-weight:bold;vertical-align:top;">session_id_welcome</td><td style="vertical-align:top;">:</td><td><div>147.142.85.51-fbbe6df0-4125-485e-bdaa-18dd6045a576<table><tr><td style="font-weight:bold;vertical-align:top;">comment</td><td style="vertical-align:top;">:</td><td><div></div></td></tr><tr><td style="font-weight:bold;vertical-align:top;">domain</td><td style="vertical-align:top;">:</td><td><div></div></td></tr><tr><td style="font-weight:bold;vertical-align:top;">expires</td><td style="vertical-align:top;">:</td><td><div></div></td></tr><tr><td style="font-weight:bold;vertical-align:top;">httponly</td><td style="vertical-align:top;">:</td><td><div></div></td></tr><tr><td style="font-weight:bold;vertical-align:top;">max-age</td><td style="vertical-align:top;">:</td><td><div></div></td></tr><tr><td style="font-weight:bold;vertical-align:top;">path</td><td style="vertical-align:top;">:</td><td><div></div></td></tr><tr><td style="font-weight:bold;vertical-align:top;">secure</td><td style="vertical-align:top;">:</td><td><div></div></td></tr><tr><td style="font-weight:bold;vertical-align:top;">version</td><td style="vertical-align:top;">:</td><td><div></div></td></tr></table></div></td></tr></table></div></td></tr><tr><td style="font-weight:bold;vertical-align:top;">env</td><td style="vertical-align:top;">:</td><td><div><table><tr><td style="font-weight:bold;vertical-align:top;">CONTEXT_DOCUMENT_ROOT</td><td style="vertical-align:top;">:</td><td><div>/var/www</div></td></tr><tr><td style="font-weight:bold;vertical-align:top;">CONTEXT_PREFIX</td><td style="vertical-align:top;">:</td><td><div></div></td></tr><tr><td style="font-weight:bold;vertical-align:top;">DOCUMENT_ROOT</td><td style="vertical-align:top;">:</td><td><div>/var/www</div></td></tr><tr><td style="font-weight:bold;vertical-align:top;">GATEWAY_INTERFACE</td><td style="vertical-align:top;">:</td><td><div>CGI/1.1</div></td></tr><tr><td style="font-weight:bold;vertical-align:top;">HTTP_ACCEPT</td><td style="vertical-align:top;">:</td><td><div>text/html,application/xhtml+xml,application/xml;q=0.9,*/*;q=0.8</div></td></tr><tr><td style="font-weight:bold;vertical-align:top;">HTTP_ACCEPT_ENCODING</td><td style="vertical-align:top;">:</td><td><div>gzip, deflate</div></td></tr><tr><td style="font-weight:bold;vertical-align:top;">HTTP_ACCEPT_LANGUAGE</td><td style="vertical-align:top;">:</td><td><div>en-US,en;q=0.5</div></td></tr><tr><td style="font-weight:bold;vertical-align:top;">HTTP_CACHE_CONTROL</td><td style="vertical-align:top;">:</td><td><div>no-cache</div></td></tr><tr><td style="font-weight:bold;vertical-align:top;">HTTP_CONNECTION</td><td style="vertical-align:top;">:</td><td><div>keep-alive</div></td></tr><tr><td style="font-weight:bold;vertical-align:top;">HTTP_COOKIE</td><td style="vertical-align:top;">:</td><td><div>session_id_welcome=147.142.85.51-fbbe6df0-4125-485e-bdaa-18dd6045a576; session_id_heiup=147.142.85.51-c4437609-5ac0-4650-b6c5-f8c86157454c; session_id_ubhd_ompportal=147.142.85.51-7baae836-bf0a-48b2-9379-2364d877c2af; OMPSID=vtgo5scljp5nm8d4lh6lo28m47; session_id_admin=147.142.85.51-09bb73e9-663f-47af-b6d5-850eb9d2730e</div></td></tr><tr><td style="font-weight:bold;vertical-align:top;">HTTP_DNT</td><td style="vertical-align:top;">:</td><td><div>1</div></td></tr><tr><td style="font-weight:bold;vertical-align:top;">HTTP_HOST</td><td style="vertical-align:top;">:</td><td><div>localhost</div></td></tr><tr><td style="font-weight:bold;vertical-align:top;">HTTP_PRAGMA</td><td style="vertical-align:top;">:</td><td><div>no-cache</div></td></tr><tr><td style="font-weight:bold;vertical-align:top;">HTTP_REFERER</td><td style="vertical-align:top;">:</td><td><div>https://localhost/heiup/catalog/book/43</div></td></tr><tr><td style="font-weight:bold;vertical-align:top;">HTTP_USER_AGENT</td><td style="vertical-align:top;">:</td><td><div>Mozilla/5.0 (X11; Ubuntu; Linux x86_64; rv:41.0) Gecko/20100101 Firefox/41.0</div></td></tr><tr><td style="font-weight:bold;vertical-align:top;">PATH_INFO</td><td style="vertical-align:top;">:</td><td><div>/heiup/catalog/index</div></td></tr><tr><td style="font-weight:bold;vertical-align:top;">PATH_TRANSLATED</td><td style="vertical-align:top;">:</td><td><div>/home/www-data/web2py/wsgihandler.py/heiup/catalog/index</div></td></tr><tr><td style="font-weight:bold;vertical-align:top;">QUERY_STRING</td><td style="vertical-align:top;">:</td><td><div></div></td></tr><tr><td style="font-weight:bold;vertical-align:top;">REMOTE_ADDR</td><td style="vertical-align:top;">:</td><td><div>147.142.85.51</div></td></tr><tr><td style="font-weight:bold;vertical-align:top;">REMOTE_PORT</td><td style="vertical-align:top;">:</td><td><div>33503</div></td></tr><tr><td style="font-weight:bold;vertical-align:top;">REQUEST_METHOD</td><td style="vertical-align:top;">:</td><td><div>GET</div></td></tr><tr><td style="font-weight:bold;vertical-align:top;">REQUEST_SCHEME</td><td style="vertical-align:top;">:</td><td><div>https</div></td></tr><tr><td style="font-weight:bold;vertical-align:top;">REQUEST_URI</td><td style="vertical-align:top;">:</td><td><div>/heiup/catalog/index</div></td></tr><tr><td style="font-weight:bold;vertical-align:top;">SCRIPT_FILENAME</td><td style="vertical-align:top;">:</td><td><div>/home/www-data/web2py/wsgihandler.py</div></td></tr><tr><td style="font-weight:bold;vertical-align:top;">SCRIPT_NAME</td><td style="vertical-align:top;">:</td><td><div></div></td></tr><tr><td style="font-weight:bold;vertical-align:top;">SERVER_ADDR</td><td style="vertical-align:top;">:</td><td><div>127.0.0.1</div></td></tr><tr><td style="font-weight:bold;vertical-align:top;">SERVER_ADMIN</td><td style="vertical-align:top;">:</td><td><div>[no address given]</div></td></tr><tr><td style="font-weight:bold;vertical-align:top;">SERVER_NAME</td><td style="vertical-align:top;">:</td><td><div>localhost</div></td></tr><tr><td style="font-weight:bold;vertical-align:top;">SERVER_PORT</td><td style="vertical-align:top;">:</td><td><div>443</div></td></tr><tr><td style="font-weight:bold;vertical-align:top;">SERVER_PROTOCOL</td><td style="vertical-align:top;">:</td><td><div>HTTP/1.1</div></td></tr><tr><td style="font-weight:bold;vertical-align:top;">SERVER_SIGNATURE</td><td style="vertical-align:top;">:</td><td><div>&lt;address&gt;Apache/2.4.7 (Ubuntu) Server at localhost Port 443&lt;/address&gt;\n</div></td></tr><tr><td style="font-weight:bold;vertical-align:top;">SERVER_SOFTWARE</td><td style="vertical-align:top;">:</td><td><div>Apache/2.4.7 (Ubuntu)</div></td></tr><tr><td style="font-weight:bold;vertical-align:top;">SSL_TLS_SNI</td><td style="vertical-align:top;">:</td><td><div>localhost</div></td></tr><tr><td style="font-weight:bold;vertical-align:top;">app_folders</td><td style="vertical-align:top;">:</td><td><div>set([&#x27;/home/www-data/web2py/applications/welcome/&#x27;, &#x27;/home/www-data/web2py/applications/heiup/&#x27;, &#x27;/home/www-data/web2py/applications/admin/&#x27;])</div></td></tr><tr><td style="font-weight:bold;vertical-align:top;">applications_parent</td><td style="vertical-align:top;">:</td><td><div>/home/www-data/web2py</div></td></tr><tr><td style="font-weight:bold;vertical-align:top;">context_document_root</td><td style="vertical-align:top;">:</td><td><div>/var/www</div></td></tr><tr><td style="font-weight:bold;vertical-align:top;">context_prefix</td><td style="vertical-align:top;">:</td><td><div></div></td></tr><tr><td style="font-weight:bold;vertical-align:top;">db_sessions</td><td style="vertical-align:top;">:</td><td><div>set([])</div></td></tr><tr><td style="font-weight:bold;vertical-align:top;">debugging</td><td style="vertical-align:top;">:</td><td><div>True</div></td></tr><tr><td style="font-weight:bold;vertical-align:top;">document_root</td><td style="vertical-align:top;">:</td><td><div>/var/www</div></td></tr><tr><td style="font-weight:bold;vertical-align:top;">gateway_interface</td><td style="vertical-align:top;">:</td><td><div>CGI/1.1</div></td></tr><tr><td style="font-weight:bold;vertical-align:top;">gluon_parent</td><td style="vertical-align:top;">:</td><td><div>/home/www-data/web2py</div></td></tr><tr><td style="font-weight:bold;vertical-align:top;">http_accept</td><td style="vertical-align:top;">:</td><td><div>text/html,application/xhtml+xml,application/xml;q=0.9,*/*;q=0.8</div></td></tr><tr><td style="font-weight:bold;vertical-align:top;">http_accept_encoding</td><td style="vertical-align:top;">:</td><td><div>gzip, deflate</div></td></tr><tr><td style="font-weight:bold;vertical-align:top;">http_accept_language</td><td style="vertical-align:top;">:</td><td><div>en-US,en;q=0.5</div></td></tr><tr><td style="font-weight:bold;vertical-align:top;">http_cache_control</td><td style="vertical-align:top;">:</td><td><div>no-cache</div></td></tr><tr><td style="font-weight:bold;vertical-align:top;">http_connection</td><td style="vertical-align:top;">:</td><td><div>keep-alive</div></td></tr><tr><td style="font-weight:bold;vertical-align:top;">http_cookie</td><td style="vertical-align:top;">:</td><td><div>session_id_welcome=147.142.85.51-fbbe6df0-4125-485e-bdaa-18dd6045a576; session_id_heiup=147.142.85.51-c4437609-5ac0-4650-b6c5-f8c86157454c; session_id_ubhd_ompportal=147.142.85.51-7baae836-bf0a-48b2-9379-2364d877c2af; OMPSID=vtgo5scljp5nm8d4lh6lo28m47; session_id_admin=147.142.85.51-09bb73e9-663f-47af-b6d5-850eb9d2730e</div></td></tr><tr><td style="font-weight:bold;vertical-align:top;">http_dnt</td><td style="vertical-align:top;">:</td><td><div>1</div></td></tr><tr><td style="font-weight:bold;vertical-align:top;">http_host</td><td style="vertical-align:top;">:</td><td><div>localhost</div></td></tr><tr><td style="font-weight:bold;vertical-align:top;">http_pragma</td><td style="vertical-align:top;">:</td><td><div>no-cache</div></td></tr><tr><td style="font-weight:bold;vertical-align:top;">http_referer</td><td style="vertical-align:top;">:</td><td><div>https://localhost/heiup/catalog/book/43</div></td></tr><tr><td style="font-weight:bold;vertical-align:top;">http_user_agent</td><td style="vertical-align:top;">:</td><td><div>Mozilla/5.0 (X11; Ubuntu; Linux x86_64; rv:41.0) Gecko/20100101 Firefox/41.0</div></td></tr><tr><td style="font-weight:bold;vertical-align:top;">is_jython</td><td style="vertical-align:top;">:</td><td><div>False</div></td></tr><tr><td style="font-weight:bold;vertical-align:top;">is_pypy</td><td style="vertical-align:top;">:</td><td><div>False</div></td></tr><tr><td style="font-weight:bold;vertical-align:top;">is_source</td><td style="vertical-align:top;">:</td><td><div>True</div></td></tr><tr><td style="font-weight:bold;vertical-align:top;">local_hosts</td><td style="vertical-align:top;">:</td><td><div><table><tr><td><div>::ffff:127.0.0.1</div></td></tr><tr><td><div>::1</div></td></tr><tr><td><div>localhost</div></td></tr><tr><td><div>pers31</div></td></tr><tr><td><div>127.0.1.1</div></td></tr><tr><td><div>127.0.0.1</div></td></tr></table></div></td></tr><tr><td style="font-weight:bold;vertical-align:top;">mod_wsgi.application_group</td><td style="vertical-align:top;">:</td><td><div>127.0.1.1|</div></td></tr><tr><td style="font-weight:bold;vertical-align:top;">mod_wsgi.callable_object</td><td style="vertical-align:top;">:</td><td><div>application</div></td></tr><tr><td style="font-weight:bold;vertical-align:top;">mod_wsgi.enable_sendfile</td><td style="vertical-align:top;">:</td><td><div>0</div></td></tr><tr><td style="font-weight:bold;vertical-align:top;">mod_wsgi.handler_script</td><td style="vertical-align:top;">:</td><td><div></div></td></tr><tr><td style="font-weight:bold;vertical-align:top;">mod_wsgi.input_chunked</td><td style="vertical-align:top;">:</td><td><div>0</div></td></tr><tr><td style="font-weight:bold;vertical-align:top;">mod_wsgi.listener_host</td><td style="vertical-align:top;">:</td><td><div></div></td></tr><tr><td style="font-weight:bold;vertical-align:top;">mod_wsgi.listener_port</td><td style="vertical-align:top;">:</td><td><div>443</div></td></tr><tr><td style="font-weight:bold;vertical-align:top;">mod_wsgi.process_group</td><td style="vertical-align:top;">:</td><td><div>web2py</div></td></tr><tr><td style="font-weight:bold;vertical-align:top;">mod_wsgi.queue_start</td><td style="vertical-align:top;">:</td><td><div>1444214610367398</div></td></tr><tr><td style="font-weight:bold;vertical-align:top;">mod_wsgi.request_handler</td><td style="vertical-align:top;">:</td><td><div>wsgi-script</div></td></tr><tr><td style="font-weight:bold;vertical-align:top;">mod_wsgi.script_reloading</td><td style="vertical-align:top;">:</td><td><div>1</div></td></tr><tr><td style="font-weight:bold;vertical-align:top;">mod_wsgi.version</td><td style="vertical-align:top;">:</td><td><div><table><tr><td><div>3</div></td></tr><tr><td><div>4</div></td></tr></table></div></td></tr><tr><td style="font-weight:bold;vertical-align:top;">mod_wsgi_application_group</td><td style="vertical-align:top;">:</td><td><div>127.0.1.1|</div></td></tr><tr><td style="font-weight:bold;vertical-align:top;">mod_wsgi_callable_object</td><td style="vertical-align:top;">:</td><td><div>application</div></td></tr><tr><td style="font-weight:bold;vertical-align:top;">mod_wsgi_enable_sendfile</td><td style="vertical-align:top;">:</td><td><div>0</div></td></tr><tr><td style="font-weight:bold;vertical-align:top;">mod_wsgi_handler_script</td><td style="vertical-align:top;">:</td><td><div></div></td></tr><tr><td style="font-weight:bold;vertical-align:top;">mod_wsgi_input_chunked</td><td style="vertical-align:top;">:</td><td><div>0</div></td></tr><tr><td style="font-weight:bold;vertical-align:top;">mod_wsgi_listener_host</td><td style="vertical-align:top;">:</td><td><div></div></td></tr><tr><td style="font-weight:bold;vertical-align:top;">mod_wsgi_listener_port</td><td style="vertical-align:top;">:</td><td><div>443</div></td></tr><tr><td style="font-weight:bold;vertical-align:top;">mod_wsgi_process_group</td><td style="vertical-align:top;">:</td><td><div>web2py</div></td></tr><tr><td style="font-weight:bold;vertical-align:top;">mod_wsgi_queue_start</td><td style="vertical-align:top;">:</td><td><div>1444214610367398</div></td></tr><tr><td style="font-weight:bold;vertical-align:top;">mod_wsgi_request_handler</td><td style="vertical-align:top;">:</td><td><div>wsgi-script</div></td></tr><tr><td style="font-weight:bold;vertical-align:top;">mod_wsgi_script_reloading</td><td style="vertical-align:top;">:</td><td><div>1</div></td></tr><tr><td style="font-weight:bold;vertical-align:top;">mod_wsgi_version</td><td style="vertical-align:top;">:</td><td><div><table><tr><td><div>3</div></td></tr><tr><td><div>4</div></td></tr></table></div></td></tr><tr><td style="font-weight:bold;vertical-align:top;">path_info</td><td style="vertical-align:top;">:</td><td><div>/heiup/catalog/index</div></td></tr><tr><td style="font-weight:bold;vertical-align:top;">path_translated</td><td style="vertical-align:top;">:</td><td><div>/home/www-data/web2py/wsgihandler.py/heiup/catalog/index</div></td></tr><tr><td style="font-weight:bold;vertical-align:top;">query_string</td><td style="vertical-align:top;">:</td><td><div></div></td></tr><tr><td style="font-weight:bold;vertical-align:top;">remote_addr</td><td style="vertical-align:top;">:</td><td><div>147.142.85.51</div></td></tr><tr><td style="font-weight:bold;vertical-align:top;">remote_port</td><td style="vertical-align:top;">:</td><td><div>33503</div></td></tr><tr><td style="font-weight:bold;vertical-align:top;">request_method</td><td style="vertical-align:top;">:</td><td><div>GET</div></td></tr><tr><td style="font-weight:bold;vertical-align:top;">request_scheme</td><td style="vertical-align:top;">:</td><td><div>https</div></td></tr><tr><td style="font-weight:bold;vertical-align:top;">request_uri</td><td style="vertical-align:top;">:</td><td><div>/heiup/catalog/index</div></td></tr><tr><td style="font-weight:bold;vertical-align:top;">script_filename</td><td style="vertical-align:top;">:</td><td><div>/home/www-data/web2py/wsgihandler.py</div></td></tr><tr><td style="font-weight:bold;vertical-align:top;">script_name</td><td style="vertical-align:top;">:</td><td><div></div></td></tr><tr><td style="font-weight:bold;vertical-align:top;">server_addr</td><td style="vertical-align:top;">:</td><td><div>127.0.0.1</div></td></tr><tr><td style="font-weight:bold;vertical-align:top;">server_admin</td><td style="vertical-align:top;">:</td><td><div>[no address given]</div></td></tr><tr><td style="font-weight:bold;vertical-align:top;">server_name</td><td style="vertical-align:top;">:</td><td><div>localhost</div></td></tr><tr><td style="font-weight:bold;vertical-align:top;">server_port</td><td style="vertical-align:top;">:</td><td><div>443</div></td></tr><tr><td style="font-weight:bold;vertical-align:top;">server_protocol</td><td style="vertical-align:top;">:</td><td><div>HTTP/1.1</div></td></tr><tr><td style="font-weight:bold;vertical-align:top;">server_signature</td><td style="vertical-align:top;">:</td><td><div>&lt;address&gt;Apache/2.4.7 (Ubuntu) Server at localhost Port 443&lt;/address&gt;\n</div></td></tr><tr><td style="font-weight:bold;vertical-align:top;">server_software</td><td style="vertical-align:top;">:</td><td><div>Apache/2.4.7 (Ubuntu)</div></td></tr><tr><td style="font-weight:bold;vertical-align:top;">ssl_tls_sni</td><td style="vertical-align:top;">:</td><td><div>localhost</div></td></tr><tr><td style="font-weight:bold;vertical-align:top;">web2py_path</td><td style="vertical-align:top;">:</td><td><div>/home/www-data/web2py</div></td></tr><tr><td style="font-weight:bold;vertical-align:top;">web2py_version</td><td style="vertical-align:top;">:</td><td><div>2.10.3-stable+timestamp.2015.04.02.21.42.07</div></td></tr><tr><td style="font-weight:bold;vertical-align:top;">wsgi.errors</td><td style="vertical-align:top;">:</td><td><div>&lt;mod_wsgi.Log object at 0x7f9ff13ae5f0&gt;</div></td></tr><tr><td style="font-weight:bold;vertical-align:top;">wsgi.file_wrapper</td><td style="vertical-align:top;">:</td><td><div>&lt;built-in method file_wrapper of mod_wsgi.Adapter object at 0x7f9ff13a9af8&gt;</div></td></tr><tr><td style="font-weight:bold;vertical-align:top;">wsgi.input</td><td style="vertical-align:top;">:</td><td><div>&lt;mod_wsgi.Input object at 0x7f9ff13ae470&gt;</div></td></tr><tr><td style="font-weight:bold;vertical-align:top;">wsgi.multiprocess</td><td style="vertical-align:top;">:</td><td><div>True</div></td></tr><tr><td style="font-weight:bold;vertical-align:top;">wsgi.multithread</td><td style="vertical-align:top;">:</td><td><div>False</div></td></tr><tr><td style="font-weight:bold;vertical-align:top;">wsgi.run_once</td><td style="vertical-align:top;">:</td><td><div>False</div></td></tr><tr><td style="font-weight:bold;vertical-align:top;">wsgi.url_scheme</td><td style="vertical-align:top;">:</td><td><div>https</div></td></tr><tr><td style="font-weight:bold;vertical-align:top;">wsgi.version</td><td style="vertical-align:top;">:</td><td><div><table><tr><td><div>1</div></td></tr><tr><td><div>0</div></td></tr></table></div></td></tr><tr><td style="font-weight:bold;vertical-align:top;">wsgi_errors</td><td style="vertical-align:top;">:</td><td><div>&lt;mod_wsgi.Log object at 0x7f9ff13ae5f0&gt;</div></td></tr><tr><td style="font-weight:bold;vertical-align:top;">wsgi_file_wrapper</td><td style="vertical-align:top;">:</td><td><div>&lt;built-in method file_wrapper of mod_wsgi.Adapter object at 0x7f9ff13a9af8&gt;</div></td></tr><tr><td style="font-weight:bold;vertical-align:top;">wsgi_input</td><td style="vertical-align:top;">:</td><td><div>&lt;mod_wsgi.Input object at 0x7f9ff13ae470&gt;</div></td></tr><tr><td style="font-weight:bold;vertical-align:top;">wsgi_multiprocess</td><td style="vertical-align:top;">:</td><td><div>True</div></td></tr><tr><td style="font-weight:bold;vertical-align:top;">wsgi_multithread</td><td style="vertical-align:top;">:</td><td><div>False</div></td></tr><tr><td style="font-weight:bold;vertical-align:top;">wsgi_run_once</td><td style="vertical-align:top;">:</td><td><div>False</div></td></tr><tr><td style="font-weight:bold;vertical-align:top;">wsgi_url_scheme</td><td style="vertical-align:top;">:</td><td><div>https</div></td></tr><tr><td style="font-weight:bold;vertical-align:top;">wsgi_version</td><td style="vertical-align:top;">:</td><td><div><table><tr><td><div>1</div></td></tr><tr><td><div>0</div></td></tr></table></div></td></tr></table></div></td></tr><tr><td style="font-weight:bold;vertical-align:top;">extension</td><td style="vertical-align:top;">:</td><td><div>html</div></td></tr><tr><td style="font-weight:bold;vertical-align:top;">folder</td><td style="vertical-align:top;">:</td><td><div>/home/www-data/web2py/applications/heiup/</div></td></tr><tr><td style="font-weight:bold;vertical-align:top;">function</td><td style="vertical-align:top;">:</td><td><div>index</div></td></tr><tr><td style="font-weight:bold;vertical-align:top;">global_settings</td><td style="vertical-align:top;">:</td><td><div><table><tr><td style="font-weight:bold;vertical-align:top;">app_folders</td><td style="vertical-align:top;">:</td><td><div>set([&#x27;/home/www-data/web2py/applications/welcome/&#x27;, &#x27;/home/www-data/web2py/applications/heiup/&#x27;, &#x27;/home/www-data/web2py/applications/admin/&#x27;])</div></td></tr><tr><td style="font-weight:bold;vertical-align:top;">applications_parent</td><td style="vertical-align:top;">:</td><td><div>/home/www-data/web2py</div></td></tr><tr><td style="font-weight:bold;vertical-align:top;">db_sessions</td><td style="vertical-align:top;">:</td><td><div>set([])</div></td></tr><tr><td style="font-weight:bold;vertical-align:top;">debugging</td><td style="vertical-align:top;">:</td><td><div>True</div></td></tr><tr><td style="font-weight:bold;vertical-align:top;">gluon_parent</td><td style="vertical-align:top;">:</td><td><div>/home/www-data/web2py</div></td></tr><tr><td style="font-weight:bold;vertical-align:top;">is_jython</td><td style="vertical-align:top;">:</td><td><div>False</div></td></tr><tr><td style="font-weight:bold;vertical-align:top;">is_pypy</td><td style="vertical-align:top;">:</td><td><div>False</div></td></tr><tr><td style="font-weight:bold;vertical-align:top;">is_source</td><td style="vertical-align:top;">:</td><td><div>True</div></td></tr><tr><td style="font-weight:bold;vertical-align:top;">local_hosts</td><td style="vertical-align:top;">:</td><td><div><table><tr><td><div>::ffff:127.0.0.1</div></td></tr><tr><td><div>::1</div></td></tr><tr><td><div>localhost</div></td></tr><tr><td><div>pers31</div></td></tr><tr><td><div>127.0.1.1</div></td></tr><tr><td><div>127.0.0.1</div></td></tr></table></div></td></tr><tr><td style="font-weight:bold;vertical-align:top;">web2py_version</td><td style="vertical-align:top;">:</td><td><div>2.10.3-stable+timestamp.2015.04.02.21.42.07</div></td></tr></table></div></td></tr><tr><td style="font-weight:bold;vertical-align:top;">is_https</td><td style="vertical-align:top;">:</td><td><div>True</div></td></tr><tr><td style="font-weight:bold;vertical-align:top;">is_local</td><td style="vertical-align:top;">:</td><td><div>False</div></td></tr><tr><td style="font-weight:bold;vertical-align:top;">is_restful</td><td style="vertical-align:top;">:</td><td><div>False</div></td></tr><tr><td style="font-weight:bold;vertical-align:top;">is_sheduler</td><td style="vertical-align:top;">:</td><td><div>None</div></td></tr><tr><td style="font-weight:bold;vertical-align:top;">is_shell</td><td style="vertical-align:top;">:</td><td><div>None</div></td></tr><tr><td style="font-weight:bold;vertical-align:top;">now</td><td style="vertical-align:top;">:</td><td><div>datetime.datetime(2015, 10, 7, 12, 43, 30, 367679)</div></td></tr><tr><td style="font-weight:bold;vertical-align:top;">raw_args</td><td style="vertical-align:top;">:</td><td><div></div></td></tr><tr><td style="font-weight:bold;vertical-align:top;">raw_extension</td><td style="vertical-align:top;">:</td><td><div>None</div></td></tr><tr><td style="font-weight:bold;vertical-align:top;">url</td><td style="vertical-align:top;">:</td><td><div>/heiup/catalog/index</div></td></tr><tr><td style="font-weight:bold;vertical-align:top;">utcnow</td><td style="vertical-align:top;">:</td><td><div>datetime.datetime(2015, 10, 7, 10, 43, 30, 367689)</div></td></tr><tr><td style="font-weight:bold;vertical-align:top;">uuid</td><td style="vertical-align:top;">:</td><td><div>heiup/147.142.85.51.2015-10-07.12-43-30.11ea8fe0-4783-4556-9371-18c6f7459039</div></td></tr><tr><td style="font-weight:bold;vertical-align:top;">wsgi</td><td style="vertical-align:top;">:</td><td><div>&lt;gluon.main.LazyWSGI object at 0x7f9ff13ae950&gt;</div></td></tr></table></div>'
tRp70
sS'frames'
p71
(lp72
(dp73
S'file'
p74
S'/home/www-data/web2py/gluon/restricted.py'
p75
sS'dump'
p76
(dp77
S'code'
p78
S'"# -*- coding: utf-8 -*-\\n\'\'\'\\nCopyright (c) 2015 H...                migrate=False,\\n                )\\n"'
p79
sS'layer'
p80
S"'/home/www-data/web2py/applications/heiup/models/db_wizard.py'"
p81
sS'global compile2'
p82
S'<function compile2>'
p83
sS'ccode'
p84
S'undefined'
p85
ssS'lnum'
p86
I226
sS'lines'
p87
(dp88
I224
S'            ccode = code'
p89
sI225
S'        else:'
p90
sI226
S'            ccode = compile2(code, layer)'
p91
sI227
S'        exec ccode in environment'
p92
sI228
S'    except HTTP:'
p93
sI229
S'        raise'
p94
sI230
S'    except RestrictedError:'
p95
sI221
S"    environment['__name__'] = '__restricted__'"
p96
sI222
S'    try:'
p97
sI223
S'        if isinstance(code, types.CodeType):'
p98
ssS'call'
p99
S'(code="# -*- coding: utf-8 -*-\\n\'\'\'\\nCopyright (c) 2015 H...                migrate=False,\\n                )\\n", environment={\'A\': <class \'gluon.html.A\'>, \'ANY_OF\': <class \'gluon.validators.ANY_OF\'>, \'ASSIGNJS\': <function ASSIGNJS>, \'AppConfig\': <function AppConfig>, \'Auth\': <class \'gluon.tools.Auth\'>, \'B\': <class \'gluon.html.B\'>, \'BEAUTIFY\': <class \'gluon.html.BEAUTIFY\'>, \'BODY\': <class \'gluon.html.BODY\'>, \'BR\': <class \'gluon.html.BR\'>, \'BUTTON\': <class \'gluon.html.BUTTON\'>, ...}, layer=\'/home/www-data/web2py/applications/heiup/models/db_wizard.py\')'
p100
sS'func'
p101
S'restricted'
p102
sa(dp103
g74
S'/home/www-data/web2py/gluon/restricted.py'
p104
sg76
(dp105
S'builtincompile'
p106
S'<built-in function compile>'
p107
sS'code'
p108
S'"# -*- coding: utf-8 -*-\\n\'\'\'\\nCopyright (c) 2015 H...                migrate=False,\\n                )\\n"'
p109
sS'code.rstrip'
p110
S'<built-in method rstrip of str object>'
p111
sS').replace'
p112
g85
sS'layer'
p113
S"'/home/www-data/web2py/applications/heiup/models/db_wizard.py'"
p114
ssg86
I209
sg87
(dp115
I204
S'def compile2(code, layer):'
p116
sI205
S'    """'
p117
sI206
S"    The ``+'\\\\n'`` is necessary else compile fails when code ends in a comment."
p118
sI207
S'    """'
p119
sI208
S''
sI209
S"    return compile(code.rstrip().replace('\\r\\n', '\\n') + '\\n', layer, 'exec')"
p120
sI210
S''
sI211
S''
sI212
S"def restricted(code, environment=None, layer='Unknown'):"
p121
sI213
S'    """'
p122
ssg99
S'(code="# -*- coding: utf-8 -*-\\n\'\'\'\\nCopyright (c) 2015 H...                migrate=False,\\n                )\\n", layer=\'/home/www-data/web2py/applications/heiup/models/db_wizard.py\')'
p123
sg101
S'compile2'
p124
sasS'pyver'
p125
S'Python 2.7.6: /usr/bin/python (prefix: /usr)'
p126
sS'session'
p127
g69
(S's\xa4\x00\x00\x00<div><table><tr><td style="font-weight:bold;vertical-align:top;">forced_language</td><td style="vertical-align:top;">:</td><td><div>de</div></td></tr></table></div>'
tRp128
sS'etype'
p129
S"<type 'exceptions.SyntaxError'>"
p130
sS'date'
p131
S'Wed Oct  7 12:43:30 2015'
p132
sS'response'
p133
g69
(S's\xe1\x17\x00\x00<div><table><tr><td style="font-weight:bold;vertical-align:top;">body</td><td style="vertical-align:top;">:</td><td><div>&lt;cStringIO.StringO object at 0x7f9ff1353dc0&gt;</div></td></tr><tr><td style="font-weight:bold;vertical-align:top;">cookies</td><td style="vertical-align:top;">:</td><td><div><table><tr><td style="font-weight:bold;vertical-align:top;">session_id_heiup</td><td style="vertical-align:top;">:</td><td><div>147.142.85.51-c4437609-5ac0-4650-b6c5-f8c86157454c<table><tr><td style="font-weight:bold;vertical-align:top;">comment</td><td style="vertical-align:top;">:</td><td><div></div></td></tr><tr><td style="font-weight:bold;vertical-align:top;">domain</td><td style="vertical-align:top;">:</td><td><div></div></td></tr><tr><td style="font-weight:bold;vertical-align:top;">expires</td><td style="vertical-align:top;">:</td><td><div></div></td></tr><tr><td style="font-weight:bold;vertical-align:top;">httponly</td><td style="vertical-align:top;">:</td><td><div></div></td></tr><tr><td style="font-weight:bold;vertical-align:top;">max-age</td><td style="vertical-align:top;">:</td><td><div></div></td></tr><tr><td style="font-weight:bold;vertical-align:top;">path</td><td style="vertical-align:top;">:</td><td><div>/</div></td></tr><tr><td style="font-weight:bold;vertical-align:top;">secure</td><td style="vertical-align:top;">:</td><td><div></div></td></tr><tr><td style="font-weight:bold;vertical-align:top;">version</td><td style="vertical-align:top;">:</td><td><div></div></td></tr></table></div></td></tr></table></div></td></tr><tr><td style="font-weight:bold;vertical-align:top;">delimiters</td><td style="vertical-align:top;">:</td><td><div><table><tr><td><div>{{</div></td></tr><tr><td><div>}}</div></td></tr></table></div></td></tr><tr><td style="font-weight:bold;vertical-align:top;">files</td><td style="vertical-align:top;">:</td><td><div><table></table></div></td></tr><tr><td style="font-weight:bold;vertical-align:top;">flash</td><td style="vertical-align:top;">:</td><td><div></div></td></tr><tr><td style="font-weight:bold;vertical-align:top;">form_label_separator</td><td style="vertical-align:top;">:</td><td><div></div></td></tr><tr><td style="font-weight:bold;vertical-align:top;">formstyle</td><td style="vertical-align:top;">:</td><td><div>bootstrap3_inline</div></td></tr><tr><td style="font-weight:bold;vertical-align:top;">generic_patterns</td><td style="vertical-align:top;">:</td><td><div><table></table></div></td></tr><tr><td style="font-weight:bold;vertical-align:top;">headers</td><td style="vertical-align:top;">:</td><td><div><table><tr><td style="font-weight:bold;vertical-align:top;">X-Powered-By</td><td style="vertical-align:top;">:</td><td><div>web2py</div></td></tr></table></div></td></tr><tr><td style="font-weight:bold;vertical-align:top;">menu</td><td style="vertical-align:top;">:</td><td><div><table></table></div></td></tr><tr><td style="font-weight:bold;vertical-align:top;">meta</td><td style="vertical-align:top;">:</td><td><div><table></table></div></td></tr><tr><td style="font-weight:bold;vertical-align:top;">models_to_run</td><td style="vertical-align:top;">:</td><td><div><table><tr><td><div>^\\w+\\.py$</div></td></tr><tr><td><div>^catalog/\\w+\\.py$</div></td></tr><tr><td><div>^catalog/index/\\w+\\.py$</div></td></tr></table></div></td></tr><tr><td style="font-weight:bold;vertical-align:top;">postprocessing</td><td style="vertical-align:top;">:</td><td><div><table></table></div></td></tr><tr><td style="font-weight:bold;vertical-align:top;">session_client</td><td style="vertical-align:top;">:</td><td><div>147.142.85.51</div></td></tr><tr><td style="font-weight:bold;vertical-align:top;">session_cookie_compression_level</td><td style="vertical-align:top;">:</td><td><div>None</div></td></tr><tr><td style="font-weight:bold;vertical-align:top;">session_cookie_expires</td><td style="vertical-align:top;">:</td><td><div>None</div></td></tr><tr><td style="font-weight:bold;vertical-align:top;">session_cookie_key</td><td style="vertical-align:top;">:</td><td><div>None</div></td></tr><tr><td style="font-weight:bold;vertical-align:top;">session_data_name</td><td style="vertical-align:top;">:</td><td><div>session_data_heiup</div></td></tr><tr><td style="font-weight:bold;vertical-align:top;">session_file</td><td style="vertical-align:top;">:</td><td><div>&lt;open file &#x27;/home/www-data/web2py/applications/heiup/sessions/019/0f2/147.142.85.51-c4437609-5ac0-4650-b6c5-f8c86157454c&#x27;, mode &#x27;rb+&#x27; at 0x7f9ff329f300&gt;</div></td></tr><tr><td style="font-weight:bold;vertical-align:top;">session_filename</td><td style="vertical-align:top;">:</td><td><div>/home/www-data/web2py/applications/heiup/sessions/147.142.85.51-c4437609-5ac0-4650-b6c5-f8c86157454c</div></td></tr><tr><td style="font-weight:bold;vertical-align:top;">session_hash</td><td style="vertical-align:top;">:</td><td><div>a75ddf95dd2945b6229b3d7a99ce09f2</div></td></tr><tr><td style="font-weight:bold;vertical-align:top;">session_id</td><td style="vertical-align:top;">:</td><td><div>147.142.85.51-c4437609-5ac0-4650-b6c5-f8c86157454c</div></td></tr><tr><td style="font-weight:bold;vertical-align:top;">session_id_name</td><td style="vertical-align:top;">:</td><td><div>session_id_heiup</div></td></tr><tr><td style="font-weight:bold;vertical-align:top;">session_locked</td><td style="vertical-align:top;">:</td><td><div>True</div></td></tr><tr><td style="font-weight:bold;vertical-align:top;">session_masterapp</td><td style="vertical-align:top;">:</td><td><div>heiup</div></td></tr><tr><td style="font-weight:bold;vertical-align:top;">session_new</td><td style="vertical-align:top;">:</td><td><div>False</div></td></tr><tr><td style="font-weight:bold;vertical-align:top;">session_storage_type</td><td style="vertical-align:top;">:</td><td><div>file</div></td></tr><tr><td style="font-weight:bold;vertical-align:top;">status</td><td style="vertical-align:top;">:</td><td><div>200</div></td></tr><tr><td style="font-weight:bold;vertical-align:top;">view</td><td style="vertical-align:top;">:</td><td><div>catalog/index.html</div></td></tr></table></div>'
tRp134
sS'locals'
p135
(dp136
g4
S"'/home/www-data/web2py/applications/heiup/models/db_wizard.py'"
p137
sg6
S'"# -*- coding: utf-8 -*-\\n\'\'\'\\nCopyright (c) 2015 H...                migrate=False,\\n                )\\n"'
p138
sssS'traceback'
p139
S'Traceback (most recent call last):\n  File "/home/www-data/web2py/gluon/restricted.py", line 226, in restricted\n    ccode = compile2(code, layer)\n  File "/home/www-data/web2py/gluon/restricted.py", line 209, in compile2\n    return compile(code.rstrip().replace(\'\\r\\n\', \'\\n\') + \'\\n\', layer, \'exec\')\n  File "/home/www-data/web2py/applications/heiup/models/db_wizard.py", line 25\n    )s\n     ^\nSyntaxError: invalid syntax\n'
p140
s.