(dp1
S'output'
p2
S"<type 'exceptions.NameError'> name 'slen' is not defined"
p3
sS'layer'
p4
S'/home/wit/projects/web2py/applications/heiup/views/catalog/book.html'
p5
sS'code'
p6
S'response.write(\'<!DOCTYPE html>\\n<!--[if (gt IE 9)|!(IE)]><!--> <html class="no-js" lang="\', escape=False)\nresponse.write(T.accepted_language or \'en\')\nresponse.write(\'"> <!--<![endif]-->\\n  <head>\\n    <meta charset="utf-8">\\n    <!-- www.phpied.com/conditional-comments-block-downloads/ -->\\n    <!-- Always force latest IE rendering engine\\n         (even in intranet) & Chrome Frame\\n         Remove this if you use the .htaccess -->\\n    <meta http-equiv="X-UA-Compatible" content="IE=edge\', escape=False)\nresponse.write(not request.is_local and \',chrome=1\' or \'\')\nresponse.write(\'">\\n    <!--  Mobile Viewport Fix\\n          j.mp/mobileviewport & davidbcalhoun.com/2010/viewport-metatag\\n          device-width: Occupy full width of the screen in its current orientation\\n          initial-scale = 1.0 retains dimensions instead of zooming out if page height > device height\\n          user-scalable = yes allows the user to zoom in -->\\n    <meta name="viewport" content="width=device-width, initial-scale=1.0">\\n    <title>\', escape=False)\nresponse.write(response.title or request.application)\nresponse.write(\'</title>\\n    <!-- http://dev.w3.org/html5/markup/meta.name.html -->\\n    <meta name="application-name" content="\', escape=False)\nresponse.write(request.application)\nresponse.write(\'">\\n    <!-- Speaking of Google, don\\\'t forget to set your site up:\\n         http://google.com/webmasters -->\\n    <meta name="google-site-verification" content="">\\n    <!-- include stylesheets -->\\n\\n    <!---link rel="stylesheet" href="\', escape=False)\nresponse.write(URL(\'static\',\'css/bootstrap-theme.min.css\'))\nresponse.write(\'"/>\\n    <link rel="stylesheet" href="\', escape=False)\nresponse.write(URL(\'static\',\'css/web2py-bootstrap3.css\'))\nresponse.write(\'"/-->\\n\\n      <!-- new -->\\n      <link rel="stylesheet" href="\', escape=False)\nresponse.write(URL(myconf.take(\'web.application\'),\'static\',\'css/bootstrap.min.css\'))\nresponse.write(\'"/>\\n      <link rel="stylesheet" href="\', escape=False)\nresponse.write(URL(myconf.take(\'web.application\'),\'static\',\'css/fancybox/jquery.fancybox.css\'))\nresponse.write(\'"/>\\n      <link rel="stylesheet" href="\', escape=False)\nresponse.write(URL(myconf.take(\'web.application\'),\'static\',\'css/flexslider.css\'))\nresponse.write(\'"/>\\n      <link rel="stylesheet" href="\', escape=False)\nresponse.write(URL(myconf.take(\'web.application\'),\'static\',\'css/style.css\'))\nresponse.write(\'"/>\\n      <link rel="stylesheet" href="\', escape=False)\nresponse.write(URL(myconf.take(\'web.application\'),\'static\',\'css/default.css\'))\nresponse.write(\'"/>\\n      <link rel="stylesheet" href="\', escape=False)\nresponse.write(URL(myconf.take(\'web.application\'),\'static\',\'css/font-awesome.css\' ))\nresponse.write(\'"/>\\n\\n\\n      <!-- end -->\\n\\n    <link rel="shortcut icon" href="\', escape=False)\nresponse.write(URL(myconf.take(\'web.application\'),\'static\',\'images/favicon.ico\'))\nresponse.write(\'" type="image/x-icon">\\n    <link rel="apple-touch-icon" href="\', escape=False)\nresponse.write(URL(myconf.take(\'web.application\'),\'static\',\'images/favicon.png\'))\nresponse.write(\'">\\n\\n\\n    <!-- All JavaScript at the bottom, except for Modernizr which enables\\n         HTML5 elements & feature detects -->\\n    <script src="\', escape=False)\nresponse.write(URL(myconf.take(\'web.application\'),\'static\',\'js/modernizr-2.8.3.min.js\'))\nresponse.write(\'"></script>\\n    <!--[if lt IE 9]>\\n        <script src="\', escape=False)\nresponse.write(URL(myconf.take(\'web.application\'),\'static\',\'js/respond-1.4.2.min.js\'))\nresponse.write(\'"></script>\\n        <![endif]-->\\n    <!-- Favicons -->\\n    \', escape=False)\nresponse.write(\'<script type="text/javascript"><!--\\n    // These variables are used by the web2py_ajax_init function in web2py_ajax.js (which is loaded below).\\n    var w2p_ajax_confirm_message = "\', escape=False)\nresponse.write(T(\'Are you sure you want to delete this object?\'))\nresponse.write(\'";\\n    var w2p_ajax_disable_with_message = "\', escape=False)\nresponse.write(T(\'Working...\'))\nresponse.write(\'";\\n    var w2p_ajax_date_format = "\', escape=False)\nresponse.write(T(\'%Y-%m-%d\'))\nresponse.write(\'";\\n    var w2p_ajax_datetime_format = "\', escape=False)\nresponse.write(T(\'%Y-%m-%d %H:%M:%S\'))\nresponse.write(\'";\\n    var ajax_error_500 = \\\'\', escape=False)\nresponse.write(T.M(\'An error occured, please [[reload %s]] the page\') % URL(args=request.args, vars=request.get_vars))\nresponse.write("\'\\n    //--></script>\\n", escape=False)\nresponse.files.insert(0,URL(\'static\',\'js/jquery.js\'))\nresponse.files.insert(1,URL(\'static\',\'css/calendar.css\'))\nresponse.files.insert(2,URL(\'static\',\'js/calendar.js\'))\nresponse.files.insert(3,URL(\'static\',\'js/web2py.js\'))\nresponse.include_meta()\nresponse.include_files()\nresponse.write(\'\\n\', escape=False)\nresponse.write(\' <!-- this includes jquery.js, calendar.js/.css and web2py.js -->\\n    \', escape=False)\nresponse.write(\'\\n    \', escape=False)\n# using sidebars need to know what sidebar you want to use\nmc0 = \'col-md-12\'\nmc1 = \'col-md-9\'\nmc2 = \'col-md-6\'\nleft_sidebar_enabled = globals().get(\'left_sidebar_enabled\', False)\nright_sidebar_enabled = globals().get(\'right_sidebar_enabled\', False)\nmiddle_column = {0: mc0, 1: mc1, 2: mc2}[\n(left_sidebar_enabled and 1 or 0)+(right_sidebar_enabled and 1 or 0)]\nresponse.write(\'\\n\\n  </head>\\n  <body>\\n    <!--[if lt IE 8]><p class="browserupgrade">You are using an <strong>outdated</strong> browser. Please <a href="http://browsehappy.com/">upgrade your browser</a> to improve your experience.</p><![endif]-->\\n    <div class="flash alert alert-dismissable">\', escape=False)\nresponse.write(response.flash or \'\')\nresponse.write(\'</div>\\n    <!-- Navbar ======================================= -->\\n    <!-- start header -->\\n\\n    <div id="service-navi" class="container">\\n\\n        <div class="row">\\n\\n            <div class="col-lg-12 col-sm-12 col-xs-12">\\n\\n                <ul class="nav nav-pills pull-right">\\n                     <li><a href="\', escape=False)\nresponse.write(URL(myconf.take(\'web.application\'),\'contact\',\'index\'))\nresponse.write(\'" style="padding-right: 0;">\', escape=False)\nresponse.write(T(\'Contact\'))\nresponse.write(\' | </a></li>\\n         <!--<li><a href="suche.html">\', escape=False)\nresponse.write(T(\'Search\'))\nresponse.write(\' |</a></li>-->\\n                    <!--<li><a href="faq.html">FAQ |</a></li>-->\\n                     \', escape=False)\nif session.forced_language==\'en\':\n    response.write(\'\\n                    <li><a href="\', escape=False)\n    response.write(request.url)\n    response.write(\'?lang=de" style="padding-left: 5px;">DE</a></li>\\n                    \', escape=False)\nelif session.forced_language==\'de\':\n    response.write(\'\\n                    <li><a href="\', escape=False)\n    response.write(request.url)\n    response.write(\'?lang=en" style="padding-left: 5px;">EN</a></li>\\n                    \', escape=False)\n    pass\nresponse.write(\'\\n                </ul>\\n\\n            </div>\\n\\n        </div>\\n\\n    </div>\\n\\n    <div id="headerLogo" class="container">\\n       <div class="col-lg-12 print-url">\\n         <img id="heiup-logo" class="screen" src="\', escape=False)\nresponse.write(URL(myconf.take(\'web.application\'),\'static\',\'images/press/schriftzug_header.png\'))\nresponse.write(\'" />\\n         <img id="heiup-logo-print" class="print" src="\', escape=False)\nresponse.write(URL(myconf.take(\'web.application\'),\'static\',\'images/press/schriftzug_header_print.png\'))\nresponse.write(\'" />\\n       </div> \\n    </div>\\n\\n    <div class="container">\\n\\n        <header>\\n            <div class="col-lg-12 ">\\n                <div class="navbar navbar-default navbar-static-top" style="width: 100%">\\n                    <div class="container">\\n                        <div class="navbar-header">\\n                            <button type="button" class="navbar-toggle" data-toggle="collapse" data-target=".navbar-collapse">4\\n                                <span class="icon-bar"></span>\\n\\n                            </button>\\n                            <a class="navbar-brand" href="index.html">\\n\\n                            </a>\\n                        </div>\\n                        <div class="navbar-collapse collapse pull-left ">\\n                            <ul class="nav navbar-nav">\\n                                <li><a href="\', escape=False)\nresponse.write(URL(myconf.take(\'web.application\'),\'home\',\'index\'))\nresponse.write(\'">\', escape=False)\nresponse.write(T(\'Home\'))\nresponse.write(\'</a></li>\\n                                <li class="dropdown">\\n                                    <a href="#" class="dropdown-toggle" data-toggle="dropdown" data-hover="dropdown"\\n                                       data-delay="0" data-close-others="false">\', escape=False)\nresponse.write(T(\'About us\'))\nresponse.write(\'<b class=" icon-angle-down"></b></a>\\n                                    <ul class="dropdown-menu">\\n                                        <li><a href="\', escape=False)\nresponse.write(URL(myconf.take(\'web.application\'),\'about_us\', \'mission_statement\'))\nresponse.write(\'"> \', escape=False)\nresponse.write(T(\'Mission Statement\'))\nresponse.write(\'</a></li>\\n                                        <li><a href="\', escape=False)\nresponse.write(URL(myconf.take(\'web.application\'),\'about_us\',\'profile\'))\nresponse.write(\'">\', escape=False)\nresponse.write(T(\'Profile\'))\nresponse.write(\'</a></li>\\n                                        <li><a href="\', escape=False)\nresponse.write(URL(myconf.take(\'web.application\'),\'about_us\',\'advisory_board\'))\nresponse.write(\'"> \', escape=False)\nresponse.write(T(\'Advisory Board\'))\nresponse.write(\'</a></li>\\n                                        <li><a href="\', escape=False)\nresponse.write(URL(myconf.take(\'web.application\'),\'about_us\',\'team\'))\nresponse.write(\'">\', escape=False)\nresponse.write(T(\'Team\'))\nresponse.write(\'</a></li>\\n\\n                                    </ul>\\n                                </li>\\n                                <li><a href="\', escape=False)\nresponse.write(URL(myconf.take(\'web.application\'),\'catalog\',\'index\'))\nresponse.write(\'">\', escape=False)\nresponse.write(T(\'Books\'))\nresponse.write(\'</a></li>\\n                                <!--<li><a href="\', escape=False)\nresponse.write(URL(myconf.take(\'web.application\'),\'journals\',\'index\'))\nresponse.write(\'">\', escape=False)\nresponse.write(T(\'Journals\'))\nresponse.write(\'</a></li>-->\\n\\n\\n                                <li class="dropdown">\\n\\n                                    <a href="#" class="dropdown-toggle " data-toggle="dropdown" data-hover="dropdown"\\n                                       data-delay="0" data-close-others="false">\', escape=False)\nresponse.write(T(\'Publishing\'))\nresponse.write(\' <b class="icon-angle-down"></b></a>\\n                                    <ul class="dropdown-menu">\\n                                        <li><a href="\', escape=False)\nresponse.write(URL(myconf.take(\'web.application\'),\'publishing\',\'for_authors\'))\nresponse.write(\'">\', escape=False)\nresponse.write(T(\'Information for Authors\'))\nresponse.write(\' </a></li>\\n                                        <!--li><a href="\', escape=False)\nresponse.write(URL(myconf.take(\'web.application\'),\'publishing\',\'book_proposal\'))\nresponse.write(\'">\', escape=False)\nresponse.write(T(\'Book Proposal\'))\nresponse.write(\'</a></li-->\\n                                        <li><a href="\', escape=False)\nresponse.write(URL(myconf.take(\'web.application\'),\'publishing\',\'rights_and_licences\'))\nresponse.write(\'">\', escape=False)\nresponse.write(T(\'Rights and Licences\'))\nresponse.write(\' </a></li>\\n\\n                                    </ul>\\n                                </li>\\n\\n                                <li class="dropdown">\\n                                    <a href="#" class="dropdown-toggle " data-toggle="dropdown" data-hover="dropdown"\\n                                       data-delay="0" data-close-others="false">\', escape=False)\nresponse.write(T(\'Quality Control\'))\nresponse.write(\' <b class=" icon-angle-down"></b></a>\\n                                    <ul class="dropdown-menu">\\n                                        <li><a href="\', escape=False)\nresponse.write(URL(myconf.take(\'web.application\'),\'quality_control\',\'peer_review\'))\nresponse.write(\'"> \', escape=False)\nresponse.write(T(\'Peer Review\'))\nresponse.write(\'</a></li>\\n                                        <li><a href="\', escape=False)\nresponse.write(URL(myconf.take(\'web.application\'),\'quality_control\',\'plagiarism\'))\nresponse.write(\'"> \', escape=False)\nresponse.write(T(\'Plagiarism\'))\nresponse.write(\'</a></li>\\n                                        <li><a href="\', escape=False)\nresponse.write(URL(myconf.take(\'web.application\'),\'quality_control\',\'data_privacy\'))\nresponse.write(\'">\', escape=False)\nresponse.write(T(\'Data Privacy\'))\nresponse.write(\' </a></li>\\n\\n\\n                                    </ul>\\n                                </li>\\n\\n\\n                            </ul>\\n                        </div>\\n\\n                        <!-- second -->\\n                        <div class="navbar-collapse collapse pull-right visible-lg hidden-md">\\n                            <ul class="nav navbar-nav">\\n\\n\\n                                <li>\\n                                    <a>\\n                                    <img id="nav-social-media" src="\', escape=False)\nresponse.write(URL(myconf.take(\'web.application\'),\'static\',\'images/press/social-media-icons.png\'))\nresponse.write(\'" height="30px"  alt="Planets" usemap="#socialmap">\\n\\n\\n                                    <map name="socialmap">\\n\\t\\t\\t\\t\\t\', escape=False)\nif request.url==\'/\':\n    response.write(\'\\n\\t\\t\\t\\t\\t\', escape=False)\n    request.url=request.url+myconf.take(\'web.application\')\n    response.write(\'\\n\\t\\t\\t\\t\\t\', escape=False)\n    pass\nresponse.write(\'\\t\\n                                 <area shape="rect" coords="0,0,30,30" alt="fb" href="https://www.facebook.com/sharer/sharer.php?u=\', escape=False)\nresponse.write(myconf.take(\'web.url\')+request.url)\nresponse.write(\'">\\n                                        <area shape="rect" coords="30,0,60,30" alt="twitter" href="http://twitter.com/home?status=\', escape=False)\nresponse.write(myconf.take(\'web.url\')+request.url)\nresponse.write(\'">\\n                                        <area shape="rect" coords="60,0,90,30" alt="twitter" href="https://www.linkedin.com/shareArticle?mini=true&url=\', escape=False)\nresponse.write(myconf.take(\'web.url\')+request.url)\nresponse.write(\'">\\n                                        <area shape="rect" coords="90,0,120,30" alt="twitter" href="https://plus.google.com/share?url=\', escape=False)\nresponse.write(myconf.take(\'web.url\')+request.url)\nresponse.write(\'">\\n\\n\\n                                    </map>\\n\\n\\n                                </a></li>\\n                                <!-- https://www.addthis.com/get/responsive-sharing-buttons -->\\n\\n\\n                            </ul>\\n                        </div>\\n\\n\\n                    </div>\\n                </div>\\n            </div>\\n\\n\\n        </header>\\n\\n\\n    </div>\\n\\n\\n        <!-- end header -->\\n    <!-- Masthead ===================================== -->\\n    \', escape=False)\nresponse.write(\'\\n    \', escape=False)\nresponse.write(\'\\n    <!-- Main ========================================= -->\\n    <!-- Begin page content -->\\n    <div class="container-fluid">\\n      \', escape=False)\nif left_sidebar_enabled:\n    response.write(\'\\n        <div class="col-md-3 left-sidebar">\\n            \', escape=False)\n    response.write(\'\\n            <h3>Left Sidebar</h3>\\n            <p></p>\\n            \', escape=False)\n    response.write(\'\\n        </div>\\n      \', escape=False)\n    pass\nresponse.write(\'\\n\\n      <div class="\', escape=False)\nresponse.write(middle_column)\nresponse.write(\'">\\n        \', escape=False)\nresponse.write(\'\\n        \', escape=False)\nresponse.write(\'\\n<section id="content">\\n\\n        <div style="height: 20px"></div>\\n\\t<div class="container">\\n\\n\\t\\t<div class="row">\\n\\n\\t\\t\\t<div class="col-lg-3">\\n\\n\\t\\t\\t\\t<article>\\n\\n\\t\\t\\t\\t\\t\\t<div class="post-image">\\n\\n\\t\\t\\t\\t\\t\\t\\t<!--div class="post-heading">\\n\\n\\t\\t\\t\\t\\t\\t\\t\\t<h3><a href="#">Book1</a></h3>\\n\\n\\t\\t\\t\\t\\t\\t\\t</div-->\\n\\n\\t\\t\\t\\t\\t\\t\\t\', escape=False)\nresponse.write(IMG(_src=cover_image))\nresponse.write(\'\\n\\n\\t\\t\\t\\t\\t\\t</div>\\n\\n\\t\\t\\t</article>\\n\\n                <div class="box">\\n                \\n                \\n\\t\\t\\t<div class="box-gray alignleft" style="height: auto;">\\n      \\n                 \', escape=False)\nif session.forced_language ==\'de\':\n    response.write(\'\\n\\n\\n                            <h5 style="color: #656565; margin-bottom: 0.5em;">Empfohlene Zitierweise</h5>\\n\\n                            <p>Habenstein, Astrid.<br>\\n                            <i>Abwesenheit von Rom: Aristokratische Interaktion in der sp\\xc3\\xa4ten r\\xc3\\xb6mischen Republik und in der fr\\xc3\\xbchen Kaiserzeit.</i> \\n                            Heidelberg: Heidelberg University Publishing, 2015. DOI: <a href="http://dx.doi.org/10.17885/heiup.43.32" title="DOI: Habenstein, Astrid, Abwesenheit von Rom, Heidelberg University Publishing, 2015">10.17885/heiup.43.32</a></p>\\n\\n                            <h5 style="color: #656565; margin-bottom: 0.3em;">Lizenz</h5>\\n\\n                            <p>Dieses Werk ist unter der<br> <a href="https://creativecommons.org/licenses/by-sa/4.0/deed.de" title="Homepage Creative Commons; Lizenz CC BY-SA 4.0">Creative Commons-Lizenz 4.0<br /> (CC BY-SA 4.0)</a> ver\\xc3\\xb6ffentlicht.<br>\\n                            <a href="https://creativecommons.org/licenses/by-sa/4.0/deed.de" title="Homepage Creative Commons; Lizenz CC BY-SA 4.0"><img alt="Creative Commons Lizenz BY-SA 4.0" src="/static/images/catalog/cc_by-sa-4-0_88x31.png" /></a></p>\\n                            <h5 style="color: #656565; margin-bottom: 0.3em; margin-top: 1.2em;">ISBN</h5>\\n                            <p>978-3-946054-00-9 (Hardcover)<br>\\n                            978-3-946054-01-6 (PDF)</p> \\n\\n                            <!--<p><B>Statistik</B></p>-->\\n\\n                             <p>Ver\\xc3\\xb6ffentlicht am 23.07.2015</p>\\n                             \\n             \', escape=False)\nelif session.forced_language ==\'en\':\n    response.write(\'\\n                            <h5 style="color: #656565; margin-bottom: 0.3em;">How to cite this title</h5>\\n\\n                            <p>Habenstein, Astrid.<br>\\n                            <i>Abwesenheit von Rom: Aristokratische Interaktion in der sp\\xc3\\xa4ten r\\xc3\\xb6mischen Republik und in der fr\\xc3\\xbchen Kaiserzeit.</i> Heidelberg: Heidelberg University Publishing, 2015. DOI: <a href="http://dx.doi.org/10.17885/heiup.43.32" title="DOI: Habenstein, Astrid, Abwesenheit von Rom, Heidelberg University Publishing, 2015">10.17885/heiup.43.32</a></p>\\n\\n                            <h5 style="color: #656565; margin-bottom: 0.3em;">Licenses</h5>\\n\\n                            <p>This work is licensed under a <a href="http://creativecommons.org/licenses/by-sa/4.0/" title="Homepage Creative Commons; License CC BY-SA 4.0">Creative Commons License 4.0<br /> (CC BY-SA 4.0)</a> .<br>\\n                            <a href="https://creativecommons.org/licenses/by-sa/4.0/" title="Homepage Creative Commons; Lizenz CC BY-SA 4.0"><img alt="Creative Commons License BY-SA 4.0" src="/static/images/catalog/cc_by-sa-4-0_88x31.png" /></a></p>\\n                            <h5 style="color: #656565; margin-bottom: 0.3em; margin-top: 1.2em;">ISBN</h5> \\n                            <p>978-3-946054-00-9 (Hardcover)<br>\\n                            978-3-946054-01-6 (PDF)</p> \\n\\n                            <!--<p><B>Statistik</B></p>-->\\n                             <p>Published 23.07.2015</p>\\n                            \\n\', escape=False)\n    pass\nresponse.write(\'                                          \\n                        </div>\\n\\n                    </div>\\n\\n            </div>\\n\\t\\t\\t<div class="col-lg-9">\\n\\n              <article>\\n\\n                    <div class="">\\n\\n                        <div class="btn-group" role="group" aria-label="1">\\n\\n\\t                        <li type="button" class="btn btn-default"><a href="\', escape=False)\nresponse.write(URL(\'reader\',\'index\',\'43/heiUP_habenstein_abwesenheit_2015.xml\'))\nresponse.write(\'"target="_blank">\', escape=False)\nresponse.write(T(\'Read\'))\nresponse.write(\'</a></li>\\n\\n                        </div>\\n\\n                        <div class="btn-group" role="group" aria-label="2">\\n\\t\\t\\n                          <button class="btn btn-default dropdown-toggle" type="button" id="dropdownMenu1" data-toggle="dropdown" aria-expanded="true">\\n\\n                           \', escape=False)\nresponse.write(T(\'Download\'))\nresponse.write(\'\\n\\n                            <span class="caret"></span>\\n\\n                          </button>\\n\\n                          <ul class="dropdown-menu" role="menu" aria-labelledby="dropdownMenu1">\\n\\n                            <li role="presentation"><a role="menuitem" tabindex="-1" href="\', escape=False)\nresponse.write(URL(\'reader\',\'download/43/heiUP_habenstein_abwesenheit_2015.pdf\'))\nresponse.write(\'">PDF</a></li>\\n\\n                          </ul>\\n\\n                \\t</div>\\n\\n                        <div class="btn-group" role="group" aria-label="2">\\n\\t\\t\\n                          <button class="btn btn-default dropdown-toggle" type="button" id="dropdownMenu1" data-toggle="dropdown" aria-expanded="true">\\n                           \', escape=False)\nresponse.write(T(\'Print On Demand\'))\nresponse.write(\'\\n                            <span class="caret"></span>\\n\\n                          </button>\\n\\n                          <ul class="dropdown-menu" role="menu" aria-labelledby="dropdownMenu1">\\n\\n                            <li role="presentation"><a role="menuitem" tabindex="-1" href="https://www.buchhandel.de/buch/Abwesenheit-von-Rom-9783946054009" target=\\\'_blank\\\'>buchhandel.de</a></li>\\n                            <li role="presentation"><a role="menuitem" tabindex="0" href="https://www.amazon.de/Abwesenheit-von-Rom-Aristokratische-Interaktion/dp/3946054005/" target=\\\'_blank\\\'> Amazon.de </a></li>\\n\\n                          </ul>\\n\\n                \\t</div>\\n\\n                        <div class="post-heading">\\n\\t\\t\\t<br/>\\n                        <h5><a href="#">\', escape=False)\nresponse.write(authors)\nresponse.write(\'</a></h5>\\n\\n                        </div>\\n\\n                            <h3>\', escape=False)\nresponse.write(cleanTitle)\nresponse.write(\'</h3>\\n\\n                        <h4>\', escape=False)\nresponse.write(subtitle)\nresponse.write(\'</h4>\\n\\n                        <p>\\n\\n                            <i class="icon-quote-left"></i>\\n\', escape=False)\nresponse.write(XML(abstract))\nresponse.write(\'\\n\\n                        </p>\\n\\n\\t\\t\\t <p>\', escape=False)\nresponse.write(XML(author_bio[\'setting_value\']))\nresponse.write(\'</p>\\n \\t\\t\\t</div>\\n\\n                    <div class="widget">\\n\\n                        <h5 class="widgetheading"></h5>\\n\\n                        <ul class="tags">\\n\\n                        </ul>\\n\\n                    </div>\\n\\n                    <div class="widget">\\n\\n                        <!---a class="btn btn-default" data-toggle="collapse" href="#collapseExample" aria-expanded="false" aria-controls="collapseExample"-->\\n                        \\n\\n\\t\\t\\t<h4>\', escape=False)\nresponse.write(T(\'Contents\'))\nresponse.write(\' </h4>                         \\n\\n                       \\n\\t\\t\\t<div  id="collapseExample">\\n\\t\\t\\t\\t\\n                        \\t<table class="table">\\n\\t\\t\\t\\t\\t\', escape=False)\ntype_dict={}\nresponse.write(\'\\n\\t\\t\\t\\t\\t\', escape=False)\nresponse.write(TR())\nresponse.write(\'\\t\\n\\t\\t\\t\\t\\t\', escape=False)\nresponse.write(TD())\nresponse.write(\'\\t\\n\\t\\t\\t\\t\\t\', escape=False)\nfor i  in publication_formats:\n    response.write(\'\\n\\t\\t\\t\\t\\t\\t\', escape=False)\n    if i.publication_format_settings.setting_value == \'XML\':\n        response.write(\'\\n\\t\\t\\t\\t\\t\\t\', escape=False)\n        response.write(TD(\'HTML\'))\n        response.write(\'\\n\\t\\t\\t\\t\\t\\t\', escape=False)\n    else:\n        response.write(\'\\n\\t\\t\\t\\t\\t\\t\', escape=False)\n        response.write(TD(i.publication_format_settings.setting_value))\n        response.write(\'\\t\\n\\t\\t\\t\\t\\t\\t\', escape=False)\n        pass\n    response.write(\'\\t\\n\\t\\t\\t\\t\\t\\t\', escape=False)\n    type_dict[i.publication_formats.publication_format_id]=i.publication_format_settings.setting_value\n    response.write(\'\\n\\t\\t\\t\\t\\t\\n\\t\\t\\t\\t\\t\', escape=False)\n    pass\nresponse.write(\'\\n\\t\\t\\t\\t\\n\\t\\t\\t\\t\', escape=False)\nnum=0\nresponse.write(\'\\n\\t\\t\\t\\t\', escape=False)\nfor i in chapters:\n    response.write(\'\\n\\t\\t\\t\\t\\t\', escape=False)\n    if slen(publication_formats)==0:\n        response.write(\'\\n\\t\\t\\t\\t\\t\\t\', escape=False)\n        response.write(TR())\n        response.write(\'\\n\\t\\t\\t\\t\\t\\t\', escape=False)\n        response.write(TD(str(i.submission_chapter_settings.setting_value)))\n        response.write(\' \\n\\t\\t\\t\\t\\t\', escape=False)\n        pass\n    response.write(\'\\n\\t\\t\\t\\t\\t\\t \', escape=False)\n    if str(type_dict[i.submission_files.assoc_id]).lower() == \'xml\':\n        response.write(\'\\n\\t\\t\\t\\t\\t\\t\\t\\n                                                \', escape=False)\n        response.write(TD(A(I(_class="fa fa-html5"), _href=URL(\'reader\', \'index/\'+str(i.submission_files.submission_id)+\'/\'+str(i.submission_files.submission_id)+\'-\'+str(i.submission_files.genre_id)+\'-\'+str(i.submission_files.file_id)+\'-\'+str(i.submission_files.revision)+\'-\'+str(i.submission_files.file_stage)+\'-\'+str(i.submission_files.date_uploaded.strftime(\'%Y%m%d\'))+\'.\'+str(type_dict[i.submission_files.assoc_id]).lower()))))\n        response.write(\'\\n\\t\\t\\t\\t\\t\\t\', escape=False)\n    else:\n        response.write(\'\\n                                                \', escape=False)\n        response.write(TD(A(I(_class="fa fa-file-text-o"), _href=URL(\'reader\', \'download/\'+str(i.submission_files.submission_id)+\'/\'+str(i.submission_files.submission_id)+\'-\'+str(i.submission_files.genre_id)+\'-\'+str(i.submission_files.file_id)+\'-\'+str(i.submission_files.revision)+\'-\'+str(i.submission_files.file_stage)+\'-\'+str(i.submission_files.date_uploaded.strftime(\'%Y%m%d\'))+\'.\'+str(type_dict[i.submission_files.assoc_id]).lower()))))\n        response.write(\'\\n\\t\\t\\t\\t\\t\\t\', escape=False)\n        pass\n    response.write(\'\\n\\t\\t\\t\\t\', escape=False)\n    num = num +1\n    response.write(\'\\n\\t\\t\\t\\t\', escape=False)\n    pass\nresponse.write(\'\\n\\n\\t\\t\\t</table>\\n\\n                        </div>\\n\\n                   </div>\\n\\n                </article>\\n\\n                   </div>\\n\\n             </div>\\n\\n         </div>\\n\\n        </section>\\n\\n\', escape=False)\nresponse.write(\'\\n        \', escape=False)\nresponse.write(\'\\n      </div>\\n\\n      \', escape=False)\nif right_sidebar_enabled:\n    response.write(\'\\n        <div class="col-md-3">\\n            \', escape=False)\n    response.write(\'\\n            <h3>Right Sidebar</h3>\\n            <p></p>\\n            \', escape=False)\n    response.write(\'\\n        </div>\\n      \', escape=False)\n    pass\nresponse.write(\'\\n\\n    </div>\\n\\n    \', escape=False)\nresponse.write(\' <!-- this is default footer -->\\n\\n      <div class="container">\\n         <footer>\\n\\n     <div class="container">\\n         <div class="row">\\n             <div class="col-lg-4" class="print">\\n                 <div class="widget">\\n                     <h5 class="widgetheading">\', escape=False)\nresponse.write(T(\'Contact\'))\nresponse.write(\'\\n                     </h5>\\n                \', escape=False)\nif session.forced_language==\'de\':\n    response.write(\'\\n                     <address>\\n                         <strong>Heidelberg University Publishing</strong><br>\\n                         Universit\\xc3\\xa4tsbibliothek Heidelberg<br>\\n                         Pl\\xc3\\xb6ck 107-109<br>\\n                         69117 Heidelberg<br>\\n                         Tel.: +49 6221 54-2569<br>\\n                         E-Mail: heiup@ub.uni-heidelberg.de\\n                     </address>\\n               \', escape=False)\nelif session.forced_language==\'en\':\n    response.write(\'\\n                   <address>\\n                         <strong>Heidelberg University Publishing</strong><br>\\n                         Universit\\xc3\\xa4tsbibliothek Heidelberg<br>\\n                         Pl\\xc3\\xb6ck 107-109<br>\\n                         69117 Heidelberg<br>\\n                         Germany<br>\\n                         Tel.: +49 6221 54-2569<br>\\n                         E-Mail: heiup@ub.uni-heidelberg.de\\n                     </address>\\n                \', escape=False)\n    pass\nresponse.write(\' \\n                     </p>\\n                 </div>\\n             </div>\\n             <div class="col-lg-4" >\\n                 <div class="widget" class="screen">\\n                \', escape=False)\nif session.forced_language==\'de\':\n    response.write(\'\\n                     <h5 class="widgetheading">Seiten</h5>\\n                \', escape=False)\nelif session.forced_language==\'en\':\n    response.write(\'\\n                     <h5 class="widgetheading">Sitemap</h5>\\n                \', escape=False)\n    pass\nresponse.write(\'     \\n                     <ul class="link-list">\\n                         <li><a href="\', escape=False)\nresponse.write(URL(myconf.take(\'web.application\'),\'home\',\'index\'))\nresponse.write(\'">\', escape=False)\nresponse.write(T(\'Home\'))\nresponse.write(\'</a></li>\\n                         <li>\', escape=False)\nresponse.write(T(\'About us\'))\nresponse.write(\' | <a href="\', escape=False)\nresponse.write(URL(myconf.take(\'web.application\'),\'about_us\',\'mission_statement\'))\nresponse.write(\'">Mission Statement</a></li>\\n                         <li><a href="\', escape=False)\nresponse.write(URL(myconf.take(\'web.application\'),\'catalog\',\'index\'))\nresponse.write(\'">\', escape=False)\nresponse.write(T(\'Books\'))\nresponse.write(\'</a></li>\\n                   \', escape=False)\nif session.forced_language==\'de\':\n    response.write(\'\\n                         <li>\', escape=False)\n    response.write(T(\'Publishing\'))\n    response.write(\' | <a href="\', escape=False)\n    response.write(URL(myconf.take(\'web.application\'),\'publishing\',\'for_authors\'))\n    response.write(\'">Informationen f\\xc3\\xbcr Autoren</a></li>\\n                   \', escape=False)\nelif session.forced_language==\'en\':\n    response.write(\'\\n                         <li>\', escape=False)\n    response.write(T(\'Publishing\'))\n    response.write(\' | <a href="\', escape=False)\n    response.write(URL(myconf.take(\'web.application\'),\'publishing\',\'for_authors\'))\n    response.write(\'">Information for Authors</a></li>\\n                   \', escape=False)\n    pass\nresponse.write(\'\\n                         <li>\', escape=False)\nresponse.write(T(\'Quality Control\'))\nresponse.write(\' | <a href="\', escape=False)\nresponse.write(URL(myconf.take(\'web.application\'),\'quality_control\',\'peer_review\'))\nresponse.write(\'">Peer Review</a></li>\\n                     </ul>\\n                 </div>\\n             </div>\\n             <div class="col-lg-4">\\n               <div id="footer_logo_ub" class="widget"><a href="http://www.uni-heidelberg.de" title="Homepage Universit\\xc3\\xa4t Heidelberg"><img alt="Logo - Universit\\xc3\\xa4t Heidelberg - Universit\\xc3\\xa4tsbibliothek Heidelberg" src="\', escape=False)\nresponse.write(URL(myconf.take(\'web.application\'),\'static\',\'/images/press/logo_footer_grau.png\'))\nresponse.write(\'" /></a>\\n               </div>\\n             </div>                        \\n         </div>\\n     </div>\\n     <div id="sub-footer"  class="screen">\\n         <div class="container">\\n             <div class="row">\\n                  <div id="footer_sn" class="col-lg-4">\\n                     <ul class="social-network">\\n                         <li><a href="https://www.facebook.com/sharer/sharer.php?u=\', escape=False)\nresponse.write(myconf.take(\'web.url\')+request.url)\nresponse.write(\'" data-placement="top" title="Facebook"><i class="fa fa-facebook fa-1x"></i></a>\\n                         </li>\\n                         <li><a href="http://twitter.com/home?status=\', escape=False)\nresponse.write(myconf.take(\'web.url\')+request.url)\nresponse.write(\'" data-placement="top" title="Twitter"><i class="fa fa-twitter fa-1x"></i></a>\\n                         </li>\\n                         <li><a href="https://www.linkedin.com/shareArticle?mini=true&url=\', escape=False)\nresponse.write(myconf.take(\'web.url\')+request.url)\nresponse.write(\'" data-placement="top" title="Linkedin"><i class="fa fa-linkedin fa-1x"></i></a>\\n                         </li>\\n                         <li><a href="https://plus.google.com/share?url=\', escape=False)\nresponse.write(myconf.take(\'web.url\')+request.url)\nresponse.write(\'" data-placement="top" title="Google plus"><i class="fa fa-google-plus fa-1x"></i></a>\\n                         </li>\\n                     </ul>\\n                 </div>\\n                 \\n                 <div class="col-lg-4">\\n                \', escape=False)\nif session.forced_language==\'de\':\n    response.write(\'\\n                     <a href="/contact/imprint.html">Impressum</a>\\n                \', escape=False)\nelif session.forced_language==\'en\':\n    response.write(\'\\n                     <a href="/contact/imprint.html">Legal Notice</a>\\n                \', escape=False)\n    pass\nresponse.write(\'     \\n                 </div>\\n                 <div class="col-lg-4">\\n                         Template by&nbsp;<a href="http://bootstraptaste.com/free-bootstrap-template-corporate-moderna/">bootstraptaste.com</a><br />\\n                     <a href="https://pkp.sfu.ca/" title="Homepage PKP - Public Knowledge Project"><img class="" alt="Public Knowledge Project" src="http://books.ub.uni-heidelberg.de/lib/pkp/templates/images/pkp_brand.png"></a>\\n                 </div>\\n             \\n                 \\n             </div>\\n         </div>\\n     </div>\\n         </footer>\\n  </div>\\n    \', escape=False)\nresponse.write(\'\\n        <script src="\', escape=False)\nresponse.write(URL(myconf.take(\'web.application\'),\'static\',\'js/jquery.flexslider.js\'))\nresponse.write(\'"></script>\\n    <script src="\', escape=False)\nresponse.write(URL(myconf.take(\'web.application\'),\'static\',\'js/bootstrap.min.js\'))\nresponse.write(\'"></script>\\n  </body>\\n</html>\\n\', escape=False)\ndb.t_usage_statistics.insert()\nresponse.write(\'\\n\', escape=False)\ndb.commit()\nresponse.write(\'\\n\', escape=False)'
p7
sS'snapshot'
p8
(dp9
S'exception'
p10
(dp11
S'__hash__'
p12
S"<method-wrapper '__hash__' of exceptions.NameError object>"
p13
sS'__setattr__'
p14
S"<method-wrapper '__setattr__' of exceptions.NameError object>"
p15
sS'__reduce_ex__'
p16
S'<built-in method __reduce_ex__ of exceptions.NameError object>'
p17
sS'__getslice__'
p18
S"<method-wrapper '__getslice__' of exceptions.NameError object>"
p19
sS'__getitem__'
p20
S"<method-wrapper '__getitem__' of exceptions.NameError object>"
p21
sS'__setstate__'
p22
S'<built-in method __setstate__ of exceptions.NameError object>'
p23
sS'args'
p24
S'("name \'slen\' is not defined",)'
p25
sS'__reduce__'
p26
S'<built-in method __reduce__ of exceptions.NameError object>'
p27
sS'__str__'
p28
S"<method-wrapper '__str__' of exceptions.NameError object>"
p29
sS'__format__'
p30
S'<built-in method __format__ of exceptions.NameError object>'
p31
sS'__getattribute__'
p32
S"<method-wrapper '__getattribute__' of exceptions.NameError object>"
p33
sS'__class__'
p34
S"<type 'exceptions.NameError'>"
p35
sS'__unicode__'
p36
S'<built-in method __unicode__ of exceptions.NameError object>'
p37
sS'__delattr__'
p38
S"<method-wrapper '__delattr__' of exceptions.NameError object>"
p39
sS'__subclasshook__'
p40
S'<built-in method __subclasshook__ of type object>'
p41
sS'__repr__'
p42
S"<method-wrapper '__repr__' of exceptions.NameError object>"
p43
sS'__dict__'
p44
S'{}'
p45
sS'__sizeof__'
p46
S'<built-in method __sizeof__ of exceptions.NameError object>'
p47
sS'__doc__'
p48
S"'Name not found globally.'"
p49
sS'__init__'
p50
S"<method-wrapper '__init__' of exceptions.NameError object>"
p51
sS'__new__'
p52
S'<built-in method __new__ of type object>'
p53
ssS'evalue'
p54
S"name 'slen' is not defined"
p55
sS'request'
p56
cgluon.html
XML_unpickle
p57
(S's\xb5\\\x00\x00<div><table><tr><td style="font-weight:bold;vertical-align:top;">ajax</td><td style="vertical-align:top;">:</td><td><div>False</div></td></tr><tr><td style="font-weight:bold;vertical-align:top;">application</td><td style="vertical-align:top;">:</td><td><div>heiup</div></td></tr><tr><td style="font-weight:bold;vertical-align:top;">args</td><td style="vertical-align:top;">:</td><td><div><table><tr><td><div>43</div></td></tr></table></div></td></tr><tr><td style="font-weight:bold;vertical-align:top;">cid</td><td style="vertical-align:top;">:</td><td><div>None</div></td></tr><tr><td style="font-weight:bold;vertical-align:top;">client</td><td style="vertical-align:top;">:</td><td><div>147.142.85.51</div></td></tr><tr><td style="font-weight:bold;vertical-align:top;">controller</td><td style="vertical-align:top;">:</td><td><div>catalog</div></td></tr><tr><td style="font-weight:bold;vertical-align:top;">cookies</td><td style="vertical-align:top;">:</td><td><div><table><tr><td style="font-weight:bold;vertical-align:top;">session_id_admin</td><td style="vertical-align:top;">:</td><td><div>147.142.85.51-52710ffd-0764-4827-b6c8-4379b1e5db2d<table><tr><td style="font-weight:bold;vertical-align:top;">comment</td><td style="vertical-align:top;">:</td><td><div></div></td></tr><tr><td style="font-weight:bold;vertical-align:top;">domain</td><td style="vertical-align:top;">:</td><td><div></div></td></tr><tr><td style="font-weight:bold;vertical-align:top;">expires</td><td style="vertical-align:top;">:</td><td><div></div></td></tr><tr><td style="font-weight:bold;vertical-align:top;">httponly</td><td style="vertical-align:top;">:</td><td><div></div></td></tr><tr><td style="font-weight:bold;vertical-align:top;">max-age</td><td style="vertical-align:top;">:</td><td><div></div></td></tr><tr><td style="font-weight:bold;vertical-align:top;">path</td><td style="vertical-align:top;">:</td><td><div></div></td></tr><tr><td style="font-weight:bold;vertical-align:top;">secure</td><td style="vertical-align:top;">:</td><td><div></div></td></tr><tr><td style="font-weight:bold;vertical-align:top;">version</td><td style="vertical-align:top;">:</td><td><div></div></td></tr></table></div></td></tr><tr><td style="font-weight:bold;vertical-align:top;">session_id_heiup</td><td style="vertical-align:top;">:</td><td><div>147.142.85.51-1854812e-992d-4249-ae5f-d10a8d98798c<table><tr><td style="font-weight:bold;vertical-align:top;">comment</td><td style="vertical-align:top;">:</td><td><div></div></td></tr><tr><td style="font-weight:bold;vertical-align:top;">domain</td><td style="vertical-align:top;">:</td><td><div></div></td></tr><tr><td style="font-weight:bold;vertical-align:top;">expires</td><td style="vertical-align:top;">:</td><td><div></div></td></tr><tr><td style="font-weight:bold;vertical-align:top;">httponly</td><td style="vertical-align:top;">:</td><td><div></div></td></tr><tr><td style="font-weight:bold;vertical-align:top;">max-age</td><td style="vertical-align:top;">:</td><td><div></div></td></tr><tr><td style="font-weight:bold;vertical-align:top;">path</td><td style="vertical-align:top;">:</td><td><div></div></td></tr><tr><td style="font-weight:bold;vertical-align:top;">secure</td><td style="vertical-align:top;">:</td><td><div></div></td></tr><tr><td style="font-weight:bold;vertical-align:top;">version</td><td style="vertical-align:top;">:</td><td><div></div></td></tr></table></div></td></tr><tr><td style="font-weight:bold;vertical-align:top;">session_id_welcome</td><td style="vertical-align:top;">:</td><td><div>147.142.85.51-2179f7bc-1f8d-49a9-bfe5-05d63ffcf2e1<table><tr><td style="font-weight:bold;vertical-align:top;">comment</td><td style="vertical-align:top;">:</td><td><div></div></td></tr><tr><td style="font-weight:bold;vertical-align:top;">domain</td><td style="vertical-align:top;">:</td><td><div></div></td></tr><tr><td style="font-weight:bold;vertical-align:top;">expires</td><td style="vertical-align:top;">:</td><td><div></div></td></tr><tr><td style="font-weight:bold;vertical-align:top;">httponly</td><td style="vertical-align:top;">:</td><td><div></div></td></tr><tr><td style="font-weight:bold;vertical-align:top;">max-age</td><td style="vertical-align:top;">:</td><td><div></div></td></tr><tr><td style="font-weight:bold;vertical-align:top;">path</td><td style="vertical-align:top;">:</td><td><div></div></td></tr><tr><td style="font-weight:bold;vertical-align:top;">secure</td><td style="vertical-align:top;">:</td><td><div></div></td></tr><tr><td style="font-weight:bold;vertical-align:top;">version</td><td style="vertical-align:top;">:</td><td><div></div></td></tr></table></div></td></tr></table></div></td></tr><tr><td style="font-weight:bold;vertical-align:top;">env</td><td style="vertical-align:top;">:</td><td><div><table><tr><td style="font-weight:bold;vertical-align:top;">HTTP_ACCEPT</td><td style="vertical-align:top;">:</td><td><div>text/html,application/xhtml+xml,application/xml;q=0.9,*/*;q=0.8</div></td></tr><tr><td style="font-weight:bold;vertical-align:top;">HTTP_ACCEPT_ENCODING</td><td style="vertical-align:top;">:</td><td><div>gzip, deflate</div></td></tr><tr><td style="font-weight:bold;vertical-align:top;">HTTP_ACCEPT_LANGUAGE</td><td style="vertical-align:top;">:</td><td><div>en-US,en;q=0.5</div></td></tr><tr><td style="font-weight:bold;vertical-align:top;">HTTP_CACHE_CONTROL</td><td style="vertical-align:top;">:</td><td><div>max-age=0</div></td></tr><tr><td style="font-weight:bold;vertical-align:top;">HTTP_CONNECTION</td><td style="vertical-align:top;">:</td><td><div>keep-alive</div></td></tr><tr><td style="font-weight:bold;vertical-align:top;">HTTP_COOKIE</td><td style="vertical-align:top;">:</td><td><div>session_id_welcome=147.142.85.51-2179f7bc-1f8d-49a9-bfe5-05d63ffcf2e1; session_id_admin=147.142.85.51-52710ffd-0764-4827-b6c8-4379b1e5db2d; session_id_heiup=147.142.85.51-1854812e-992d-4249-ae5f-d10a8d98798c</div></td></tr><tr><td style="font-weight:bold;vertical-align:top;">HTTP_DNT</td><td style="vertical-align:top;">:</td><td><div>1</div></td></tr><tr><td style="font-weight:bold;vertical-align:top;">HTTP_HOST</td><td style="vertical-align:top;">:</td><td><div>localhost:8000</div></td></tr><tr><td style="font-weight:bold;vertical-align:top;">HTTP_REFERER</td><td style="vertical-align:top;">:</td><td><div>http://localhost:8000/heiup/catalog/</div></td></tr><tr><td style="font-weight:bold;vertical-align:top;">HTTP_USER_AGENT</td><td style="vertical-align:top;">:</td><td><div>Mozilla/5.0 (X11; Ubuntu; Linux x86_64; rv:41.0) Gecko/20100101 Firefox/41.0</div></td></tr><tr><td style="font-weight:bold;vertical-align:top;">PATH_INFO</td><td style="vertical-align:top;">:</td><td><div>/heiup/catalog/book/43</div></td></tr><tr><td style="font-weight:bold;vertical-align:top;">QUERY_STRING</td><td style="vertical-align:top;">:</td><td><div></div></td></tr><tr><td style="font-weight:bold;vertical-align:top;">REMOTE_ADDR</td><td style="vertical-align:top;">:</td><td><div>147.142.85.51</div></td></tr><tr><td style="font-weight:bold;vertical-align:top;">REMOTE_PORT</td><td style="vertical-align:top;">:</td><td><div>43932</div></td></tr><tr><td style="font-weight:bold;vertical-align:top;">REQUEST_METHOD</td><td style="vertical-align:top;">:</td><td><div>GET</div></td></tr><tr><td style="font-weight:bold;vertical-align:top;">SCRIPT_NAME</td><td style="vertical-align:top;">:</td><td><div></div></td></tr><tr><td style="font-weight:bold;vertical-align:top;">SERVER_NAME</td><td style="vertical-align:top;">:</td><td><div>pers31</div></td></tr><tr><td style="font-weight:bold;vertical-align:top;">SERVER_PORT</td><td style="vertical-align:top;">:</td><td><div>8000</div></td></tr><tr><td style="font-weight:bold;vertical-align:top;">SERVER_PROTOCOL</td><td style="vertical-align:top;">:</td><td><div>HTTP/1.1</div></td></tr><tr><td style="font-weight:bold;vertical-align:top;">SERVER_SOFTWARE</td><td style="vertical-align:top;">:</td><td><div>Rocket 1.2.6</div></td></tr><tr><td style="font-weight:bold;vertical-align:top;">app_folders</td><td style="vertical-align:top;">:</td><td><div>set([&#x27;/home/wit/projects/web2py/applications/heiup/&#x27;, &#x27;/home/wit/projects/web2py/applications/welcome/&#x27;, &#x27;/home/wit/projects/web2py/applications/admin/&#x27;])</div></td></tr><tr><td style="font-weight:bold;vertical-align:top;">applications_parent</td><td style="vertical-align:top;">:</td><td><div>/home/wit/projects/web2py</div></td></tr><tr><td style="font-weight:bold;vertical-align:top;">cmd_args</td><td style="vertical-align:top;">:</td><td><div><table></table></div></td></tr><tr><td style="font-weight:bold;vertical-align:top;">cmd_options</td><td style="vertical-align:top;">:</td><td><div>&lt;Values at 0x7f31a44a3a70: {&#x27;verbose&#x27;: False, &#x27;ip&#x27;: &#x27;127.0.0.1&#x27;, &#x27;debuglevel&#x27;: 30, &#x27;with_scheduler&#x27;: False, &#x27;ips&#x27;: [&#x27;127.0.1.1&#x27;], &#x27;shutdown_timeout&#x27;: 5, &#x27;taskbar&#x27;: False, &#x27;with_coverage&#x27;: False, &#x27;scheduler_groups&#x27;: None, &#x27;port&#x27;: 8000, &#x27;maxthreads&#x27;: None, &#x27;softcron&#x27;: False, &#x27;server_name&#x27;: &#x27;pers31&#x27;, &#x27;bpython&#x27;: False, &#x27;nogui&#x27;: False, &#x27;pid_filename&#x27;: &#x27;httpserver.pid&#x27;, &#x27;print_errors&#x27;: False, &#x27;extcron&#x27;: False, &#x27;runcron&#x27;: False, &#x27;run_system_tests&#x27;: False, &#x27;test&#x27;: None, &#x27;folder&#x27;: &#x27;/home/wit/projects/web2py&#x27;, &#x27;config&#x27;: &#x27;&#x27;, &#x27;minthreads&#x27;: None, &#x27;shell&#x27;: None, &#x27;run&#x27;: &#x27;&#x27;, &#x27;log_filename&#x27;: &#x27;httpserver.log&#x27;, &#x27;profiler_dir&#x27;: None, &#x27;args&#x27;: [&#x27;&#x27;], &#x27;socket_timeout&#x27;: 5, &#x27;ssl_ca_certificate&#x27;: None, &#x27;scheduler&#x27;: None, &#x27;interfaces&#x27;: None, &#x27;ssl_private_key&#x27;: &#x27;&#x27;, &#x27;gae&#x27;: None, &#x27;password&#x27;: &#x27;&lt;ask&gt;&#x27;, &#x27;request_queue_size&#x27;: 5, &#x27;ssl_certificate&#x27;: &#x27;&#x27;, &#x27;cronjob&#x27;: False, &#x27;numthreads&#x27;: None, &#x27;quiet&#x27;: False, &#x27;import_models&#x27;: False, &#x27;timeout&#x27;: 10, &#x27;plain&#x27;: False, &#x27;nobanner&#x27;: False}&gt;</div></td></tr><tr><td style="font-weight:bold;vertical-align:top;">db_sessions</td><td style="vertical-align:top;">:</td><td><div>set([])</div></td></tr><tr><td style="font-weight:bold;vertical-align:top;">debugging</td><td style="vertical-align:top;">:</td><td><div>False</div></td></tr><tr><td style="font-weight:bold;vertical-align:top;">gluon_parent</td><td style="vertical-align:top;">:</td><td><div>/home/wit/projects/web2py</div></td></tr><tr><td style="font-weight:bold;vertical-align:top;">http_accept</td><td style="vertical-align:top;">:</td><td><div>text/html,application/xhtml+xml,application/xml;q=0.9,*/*;q=0.8</div></td></tr><tr><td style="font-weight:bold;vertical-align:top;">http_accept_encoding</td><td style="vertical-align:top;">:</td><td><div>gzip, deflate</div></td></tr><tr><td style="font-weight:bold;vertical-align:top;">http_accept_language</td><td style="vertical-align:top;">:</td><td><div>en-US,en;q=0.5</div></td></tr><tr><td style="font-weight:bold;vertical-align:top;">http_cache_control</td><td style="vertical-align:top;">:</td><td><div>max-age=0</div></td></tr><tr><td style="font-weight:bold;vertical-align:top;">http_connection</td><td style="vertical-align:top;">:</td><td><div>keep-alive</div></td></tr><tr><td style="font-weight:bold;vertical-align:top;">http_cookie</td><td style="vertical-align:top;">:</td><td><div>session_id_welcome=147.142.85.51-2179f7bc-1f8d-49a9-bfe5-05d63ffcf2e1; session_id_admin=147.142.85.51-52710ffd-0764-4827-b6c8-4379b1e5db2d; session_id_heiup=147.142.85.51-1854812e-992d-4249-ae5f-d10a8d98798c</div></td></tr><tr><td style="font-weight:bold;vertical-align:top;">http_dnt</td><td style="vertical-align:top;">:</td><td><div>1</div></td></tr><tr><td style="font-weight:bold;vertical-align:top;">http_host</td><td style="vertical-align:top;">:</td><td><div>localhost:8000</div></td></tr><tr><td style="font-weight:bold;vertical-align:top;">http_referer</td><td style="vertical-align:top;">:</td><td><div>http://localhost:8000/heiup/catalog/</div></td></tr><tr><td style="font-weight:bold;vertical-align:top;">http_user_agent</td><td style="vertical-align:top;">:</td><td><div>Mozilla/5.0 (X11; Ubuntu; Linux x86_64; rv:41.0) Gecko/20100101 Firefox/41.0</div></td></tr><tr><td style="font-weight:bold;vertical-align:top;">is_jython</td><td style="vertical-align:top;">:</td><td><div>False</div></td></tr><tr><td style="font-weight:bold;vertical-align:top;">is_pypy</td><td style="vertical-align:top;">:</td><td><div>False</div></td></tr><tr><td style="font-weight:bold;vertical-align:top;">is_source</td><td style="vertical-align:top;">:</td><td><div>True</div></td></tr><tr><td style="font-weight:bold;vertical-align:top;">local_hosts</td><td style="vertical-align:top;">:</td><td><div><table><tr><td><div>pers31</div></td></tr><tr><td><div>::1</div></td></tr><tr><td><div>127.0.1.1</div></td></tr><tr><td><div>::ffff:127.0.0.1</div></td></tr><tr><td><div>127.0.0.1</div></td></tr></table></div></td></tr><tr><td style="font-weight:bold;vertical-align:top;">path_info</td><td style="vertical-align:top;">:</td><td><div>/heiup/catalog/book/43</div></td></tr><tr><td style="font-weight:bold;vertical-align:top;">query_string</td><td style="vertical-align:top;">:</td><td><div></div></td></tr><tr><td style="font-weight:bold;vertical-align:top;">remote_addr</td><td style="vertical-align:top;">:</td><td><div>147.142.85.51</div></td></tr><tr><td style="font-weight:bold;vertical-align:top;">remote_port</td><td style="vertical-align:top;">:</td><td><div>43932</div></td></tr><tr><td style="font-weight:bold;vertical-align:top;">request_method</td><td style="vertical-align:top;">:</td><td><div>GET</div></td></tr><tr><td style="font-weight:bold;vertical-align:top;">request_uri</td><td style="vertical-align:top;">:</td><td><div>/heiup/catalog/book/43</div></td></tr><tr><td style="font-weight:bold;vertical-align:top;">script_name</td><td style="vertical-align:top;">:</td><td><div></div></td></tr><tr><td style="font-weight:bold;vertical-align:top;">server_name</td><td style="vertical-align:top;">:</td><td><div>pers31</div></td></tr><tr><td style="font-weight:bold;vertical-align:top;">server_port</td><td style="vertical-align:top;">:</td><td><div>8000</div></td></tr><tr><td style="font-weight:bold;vertical-align:top;">server_protocol</td><td style="vertical-align:top;">:</td><td><div>HTTP/1.1</div></td></tr><tr><td style="font-weight:bold;vertical-align:top;">server_software</td><td style="vertical-align:top;">:</td><td><div>Rocket 1.2.6</div></td></tr><tr><td style="font-weight:bold;vertical-align:top;">web2py_path</td><td style="vertical-align:top;">:</td><td><div>/home/wit/projects/web2py</div></td></tr><tr><td style="font-weight:bold;vertical-align:top;">web2py_version</td><td style="vertical-align:top;">:</td><td><div>2.12.3-stable+timestamp.2015.08.18.19.14.07</div></td></tr><tr><td style="font-weight:bold;vertical-align:top;">wsgi.errors</td><td style="vertical-align:top;">:</td><td><div>&lt;open file &#x27;&lt;stderr&gt;&#x27;, mode &#x27;w&#x27; at 0x7f31abf031e0&gt;</div></td></tr><tr><td style="font-weight:bold;vertical-align:top;">wsgi.file_wrapper</td><td style="vertical-align:top;">:</td><td><div>&lt;class wsgiref.util.FileWrapper at 0x7f31a4788530&gt;</div></td></tr><tr><td style="font-weight:bold;vertical-align:top;">wsgi.input</td><td style="vertical-align:top;">:</td><td><div>&lt;socket._fileobject object at 0x7f3164124f50&gt;</div></td></tr><tr><td style="font-weight:bold;vertical-align:top;">wsgi.multiprocess</td><td style="vertical-align:top;">:</td><td><div>False</div></td></tr><tr><td style="font-weight:bold;vertical-align:top;">wsgi.multithread</td><td style="vertical-align:top;">:</td><td><div>True</div></td></tr><tr><td style="font-weight:bold;vertical-align:top;">wsgi.run_once</td><td style="vertical-align:top;">:</td><td><div>False</div></td></tr><tr><td style="font-weight:bold;vertical-align:top;">wsgi.url_scheme</td><td style="vertical-align:top;">:</td><td><div>http</div></td></tr><tr><td style="font-weight:bold;vertical-align:top;">wsgi.version</td><td style="vertical-align:top;">:</td><td><div><table><tr><td><div>1</div></td></tr><tr><td><div>0</div></td></tr></table></div></td></tr><tr><td style="font-weight:bold;vertical-align:top;">wsgi_errors</td><td style="vertical-align:top;">:</td><td><div>&lt;open file &#x27;&lt;stderr&gt;&#x27;, mode &#x27;w&#x27; at 0x7f31abf031e0&gt;</div></td></tr><tr><td style="font-weight:bold;vertical-align:top;">wsgi_file_wrapper</td><td style="vertical-align:top;">:</td><td><div>&lt;class wsgiref.util.FileWrapper at 0x7f31a4788530&gt;</div></td></tr><tr><td style="font-weight:bold;vertical-align:top;">wsgi_input</td><td style="vertical-align:top;">:</td><td><div>&lt;socket._fileobject object at 0x7f3164124f50&gt;</div></td></tr><tr><td style="font-weight:bold;vertical-align:top;">wsgi_multiprocess</td><td style="vertical-align:top;">:</td><td><div>False</div></td></tr><tr><td style="font-weight:bold;vertical-align:top;">wsgi_multithread</td><td style="vertical-align:top;">:</td><td><div>True</div></td></tr><tr><td style="font-weight:bold;vertical-align:top;">wsgi_run_once</td><td style="vertical-align:top;">:</td><td><div>False</div></td></tr><tr><td style="font-weight:bold;vertical-align:top;">wsgi_url_scheme</td><td style="vertical-align:top;">:</td><td><div>http</div></td></tr><tr><td style="font-weight:bold;vertical-align:top;">wsgi_version</td><td style="vertical-align:top;">:</td><td><div><table><tr><td><div>1</div></td></tr><tr><td><div>0</div></td></tr></table></div></td></tr></table></div></td></tr><tr><td style="font-weight:bold;vertical-align:top;">extension</td><td style="vertical-align:top;">:</td><td><div>html</div></td></tr><tr><td style="font-weight:bold;vertical-align:top;">folder</td><td style="vertical-align:top;">:</td><td><div>/home/wit/projects/web2py/applications/heiup/</div></td></tr><tr><td style="font-weight:bold;vertical-align:top;">function</td><td style="vertical-align:top;">:</td><td><div>book</div></td></tr><tr><td style="font-weight:bold;vertical-align:top;">global_settings</td><td style="vertical-align:top;">:</td><td><div><table><tr><td style="font-weight:bold;vertical-align:top;">app_folders</td><td style="vertical-align:top;">:</td><td><div>set([&#x27;/home/wit/projects/web2py/applications/heiup/&#x27;, &#x27;/home/wit/projects/web2py/applications/welcome/&#x27;, &#x27;/home/wit/projects/web2py/applications/admin/&#x27;])</div></td></tr><tr><td style="font-weight:bold;vertical-align:top;">applications_parent</td><td style="vertical-align:top;">:</td><td><div>/home/wit/projects/web2py</div></td></tr><tr><td style="font-weight:bold;vertical-align:top;">cmd_args</td><td style="vertical-align:top;">:</td><td><div><table></table></div></td></tr><tr><td style="font-weight:bold;vertical-align:top;">cmd_options</td><td style="vertical-align:top;">:</td><td><div>&lt;Values at 0x7f31a44a3a70: {&#x27;verbose&#x27;: False, &#x27;ip&#x27;: &#x27;127.0.0.1&#x27;, &#x27;debuglevel&#x27;: 30, &#x27;with_scheduler&#x27;: False, &#x27;ips&#x27;: [&#x27;127.0.1.1&#x27;], &#x27;shutdown_timeout&#x27;: 5, &#x27;taskbar&#x27;: False, &#x27;with_coverage&#x27;: False, &#x27;scheduler_groups&#x27;: None, &#x27;port&#x27;: 8000, &#x27;maxthreads&#x27;: None, &#x27;softcron&#x27;: False, &#x27;server_name&#x27;: &#x27;pers31&#x27;, &#x27;bpython&#x27;: False, &#x27;nogui&#x27;: False, &#x27;pid_filename&#x27;: &#x27;httpserver.pid&#x27;, &#x27;print_errors&#x27;: False, &#x27;extcron&#x27;: False, &#x27;runcron&#x27;: False, &#x27;run_system_tests&#x27;: False, &#x27;test&#x27;: None, &#x27;folder&#x27;: &#x27;/home/wit/projects/web2py&#x27;, &#x27;config&#x27;: &#x27;&#x27;, &#x27;minthreads&#x27;: None, &#x27;shell&#x27;: None, &#x27;run&#x27;: &#x27;&#x27;, &#x27;log_filename&#x27;: &#x27;httpserver.log&#x27;, &#x27;profiler_dir&#x27;: None, &#x27;args&#x27;: [&#x27;&#x27;], &#x27;socket_timeout&#x27;: 5, &#x27;ssl_ca_certificate&#x27;: None, &#x27;scheduler&#x27;: None, &#x27;interfaces&#x27;: None, &#x27;ssl_private_key&#x27;: &#x27;&#x27;, &#x27;gae&#x27;: None, &#x27;password&#x27;: &#x27;&lt;ask&gt;&#x27;, &#x27;request_queue_size&#x27;: 5, &#x27;ssl_certificate&#x27;: &#x27;&#x27;, &#x27;cronjob&#x27;: False, &#x27;numthreads&#x27;: None, &#x27;quiet&#x27;: False, &#x27;import_models&#x27;: False, &#x27;timeout&#x27;: 10, &#x27;plain&#x27;: False, &#x27;nobanner&#x27;: False}&gt;</div></td></tr><tr><td style="font-weight:bold;vertical-align:top;">db_sessions</td><td style="vertical-align:top;">:</td><td><div>set([])</div></td></tr><tr><td style="font-weight:bold;vertical-align:top;">debugging</td><td style="vertical-align:top;">:</td><td><div>False</div></td></tr><tr><td style="font-weight:bold;vertical-align:top;">gluon_parent</td><td style="vertical-align:top;">:</td><td><div>/home/wit/projects/web2py</div></td></tr><tr><td style="font-weight:bold;vertical-align:top;">is_jython</td><td style="vertical-align:top;">:</td><td><div>False</div></td></tr><tr><td style="font-weight:bold;vertical-align:top;">is_pypy</td><td style="vertical-align:top;">:</td><td><div>False</div></td></tr><tr><td style="font-weight:bold;vertical-align:top;">is_source</td><td style="vertical-align:top;">:</td><td><div>True</div></td></tr><tr><td style="font-weight:bold;vertical-align:top;">local_hosts</td><td style="vertical-align:top;">:</td><td><div><table><tr><td><div>pers31</div></td></tr><tr><td><div>::1</div></td></tr><tr><td><div>127.0.1.1</div></td></tr><tr><td><div>::ffff:127.0.0.1</div></td></tr><tr><td><div>127.0.0.1</div></td></tr></table></div></td></tr><tr><td style="font-weight:bold;vertical-align:top;">web2py_version</td><td style="vertical-align:top;">:</td><td><div>2.12.3-stable+timestamp.2015.08.18.19.14.07</div></td></tr></table></div></td></tr><tr><td style="font-weight:bold;vertical-align:top;">is_https</td><td style="vertical-align:top;">:</td><td><div>False</div></td></tr><tr><td style="font-weight:bold;vertical-align:top;">is_local</td><td style="vertical-align:top;">:</td><td><div>False</div></td></tr><tr><td style="font-weight:bold;vertical-align:top;">is_restful</td><td style="vertical-align:top;">:</td><td><div>False</div></td></tr><tr><td style="font-weight:bold;vertical-align:top;">is_sheduler</td><td style="vertical-align:top;">:</td><td><div>None</div></td></tr><tr><td style="font-weight:bold;vertical-align:top;">is_shell</td><td style="vertical-align:top;">:</td><td><div>None</div></td></tr><tr><td style="font-weight:bold;vertical-align:top;">now</td><td style="vertical-align:top;">:</td><td><div>datetime.datetime(2015, 10, 1, 14, 1, 41, 263224)</div></td></tr><tr><td style="font-weight:bold;vertical-align:top;">raw_args</td><td style="vertical-align:top;">:</td><td><div>43</div></td></tr><tr><td style="font-weight:bold;vertical-align:top;">raw_extension</td><td style="vertical-align:top;">:</td><td><div>None</div></td></tr><tr><td style="font-weight:bold;vertical-align:top;">url</td><td style="vertical-align:top;">:</td><td><div>/heiup/catalog/book/43</div></td></tr><tr><td style="font-weight:bold;vertical-align:top;">utcnow</td><td style="vertical-align:top;">:</td><td><div>datetime.datetime(2015, 10, 1, 12, 1, 41, 263237)</div></td></tr><tr><td style="font-weight:bold;vertical-align:top;">wsgi</td><td style="vertical-align:top;">:</td><td><div>&lt;gluon.main.LazyWSGI object at 0x7f31640a2ad0&gt;</div></td></tr></table></div>'
tRp58
sS'frames'
p59
(lp60
(dp61
S'file'
p62
S'/home/wit/projects/web2py/gluon/restricted.py'
p63
sS'dump'
p64
(dp65
S'environment'
p66
S"{'A': <class 'gluon.html.A'>, 'ANY_OF': <class 'gluon.validators.ANY_OF'>, 'ASSIGNJS': <function ASSIGNJS>, 'AppConfig': <function AppConfig>, 'Auth': <class 'gluon.tools.Auth'>, 'B': <class 'gluon.html.B'>, 'BEAUTIFY': <class 'gluon.html.BEAUTIFY'>, 'BODY': <class 'gluon.html.BODY'>, 'BR': <class 'gluon.html.BR'>, 'BUTTON': <class 'gluon.html.BUTTON'>, ...}"
p67
sS'ccode'
p68
S'<code object <module> at 0x7f316407bcb0, file "/...lications/heiup/views/catalog/book.html", line 1>'
p69
ssS'lnum'
p70
I227
sS'lines'
p71
(dp72
I224
S'            ccode = code'
p73
sI225
S'        else:'
p74
sI226
S'            ccode = compile2(code, layer)'
p75
sI227
S'        exec ccode in environment'
p76
sI228
S'    except HTTP:'
p77
sI229
S'        raise'
p78
sI230
S'    except RestrictedError:'
p79
sI231
S'        # do not encapsulate (obfuscate) the original RestrictedError'
p80
sI222
S'    try:'
p81
sI223
S'        if isinstance(code, types.CodeType):'
p82
ssS'call'
p83
S'(code="response.write(\'<!DOCTYPE html>\\\\n<!--[if (gt IE ...e)\\ndb.commit()\\nresponse.write(\'\\\\n\', escape=False)", environment={\'A\': <class \'gluon.html.A\'>, \'ANY_OF\': <class \'gluon.validators.ANY_OF\'>, \'ASSIGNJS\': <function ASSIGNJS>, \'AppConfig\': <function AppConfig>, \'Auth\': <class \'gluon.tools.Auth\'>, \'B\': <class \'gluon.html.B\'>, \'BEAUTIFY\': <class \'gluon.html.BEAUTIFY\'>, \'BODY\': <class \'gluon.html.BODY\'>, \'BR\': <class \'gluon.html.BR\'>, \'BUTTON\': <class \'gluon.html.BUTTON\'>, ...}, layer=\'/home/wit/projects/web2py/applications/heiup/views/catalog/book.html\')'
p84
sS'func'
p85
S'restricted'
p86
sa(dp87
g62
S'/home/wit/projects/web2py/applications/heiup/views/catalog/book.html'
p88
sg64
(dp89
sg70
I227
sg71
(dp90
I224
S"response.write('\\n\\t\\t\\t\\t', escape=False)"
p91
sI225
S'for i in chapters:'
p92
sI226
S"    response.write('\\n\\t\\t\\t\\t\\t', escape=False)"
p93
sI227
S'    if slen(publication_formats)==0:'
p94
sI228
S"        response.write('\\n\\t\\t\\t\\t\\t\\t', escape=False)"
p95
sI229
S'        response.write(TR())'
p96
sI230
S"        response.write('\\n\\t\\t\\t\\t\\t\\t', escape=False)"
p97
sI231
S'        response.write(TD(str(i.submission_chapter_settings.setting_value)))'
p98
sI232
S"        response.write(' \\n\\t\\t\\t\\t\\t', escape=False)"
p99
sI233
S'        pass'
p100
sI234
S"    response.write('\\n\\t\\t\\t\\t\\t\\t ', escape=False)"
p101
sI235
S"    if str(type_dict[i.submission_files.assoc_id]).lower() == 'xml':"
p102
sI236
S"        response.write('\\n\\t\\t\\t\\t\\t\\t\\t\\n                                                ', escape=False)"
p103
sI237
S'        response.write(TD(A(I(_class="fa fa-html5"), _href=URL(\'reader\', \'index/\'+str(i.submission_files.submission_id)+\'/\'+str(i.submission_files.submission_id)+\'-\'+str(i.submission_files.genre_id)+\'-\'+str(i.submission_files.file_id)+\'-\'+str(i.submission_files.revision)+\'-\'+str(i.submission_files.file_stage)+\'-\'+str(i.submission_files.date_uploaded.strftime(\'%Y%m%d\'))+\'.\'+str(type_dict[i.submission_files.assoc_id]).lower()))))'
p104
sI218
S"    response.write('\\t\\n\\t\\t\\t\\t\\t\\t', escape=False)"
p105
sI219
S'    type_dict[i.publication_formats.publication_format_id]=i.publication_format_settings.setting_value'
p106
sI220
S"    response.write('\\n\\t\\t\\t\\t\\t\\n\\t\\t\\t\\t\\t', escape=False)"
p107
sI221
S'    pass'
p108
sI222
S"response.write('\\n\\t\\t\\t\\t\\n\\t\\t\\t\\t', escape=False)"
p109
sI223
S'num=0'
p110
ssg83
S'()'
p111
sg85
S'<module>'
p112
sasS'pyver'
p113
S'Python 2.7.6: /usr/bin/python (prefix: /usr)'
p114
sS'session'
p115
g57
(S's\xa4\x00\x00\x00<div><table><tr><td style="font-weight:bold;vertical-align:top;">forced_language</td><td style="vertical-align:top;">:</td><td><div>de</div></td></tr></table></div>'
tRp116
sS'etype'
p117
S"<type 'exceptions.NameError'>"
p118
sS'date'
p119
S'Thu Oct  1 14:01:41 2015'
p120
sS'response'
p121
g57
(S'sK\x1c\x00\x00<div><table><tr><td style="font-weight:bold;vertical-align:top;">body</td><td style="vertical-align:top;">:</td><td><div>&lt;cStringIO.StringO object at 0x7f3164126340&gt;</div></td></tr><tr><td style="font-weight:bold;vertical-align:top;">cookies</td><td style="vertical-align:top;">:</td><td><div><table><tr><td style="font-weight:bold;vertical-align:top;">session_id_heiup</td><td style="vertical-align:top;">:</td><td><div>147.142.85.51-1854812e-992d-4249-ae5f-d10a8d98798c<table><tr><td style="font-weight:bold;vertical-align:top;">comment</td><td style="vertical-align:top;">:</td><td><div></div></td></tr><tr><td style="font-weight:bold;vertical-align:top;">domain</td><td style="vertical-align:top;">:</td><td><div></div></td></tr><tr><td style="font-weight:bold;vertical-align:top;">expires</td><td style="vertical-align:top;">:</td><td><div></div></td></tr><tr><td style="font-weight:bold;vertical-align:top;">httponly</td><td style="vertical-align:top;">:</td><td><div></div></td></tr><tr><td style="font-weight:bold;vertical-align:top;">max-age</td><td style="vertical-align:top;">:</td><td><div></div></td></tr><tr><td style="font-weight:bold;vertical-align:top;">path</td><td style="vertical-align:top;">:</td><td><div>/</div></td></tr><tr><td style="font-weight:bold;vertical-align:top;">secure</td><td style="vertical-align:top;">:</td><td><div></div></td></tr><tr><td style="font-weight:bold;vertical-align:top;">version</td><td style="vertical-align:top;">:</td><td><div></div></td></tr></table></div></td></tr></table></div></td></tr><tr><td style="font-weight:bold;vertical-align:top;">delimiters</td><td style="vertical-align:top;">:</td><td><div><table><tr><td><div>{{</div></td></tr><tr><td><div>}}</div></td></tr></table></div></td></tr><tr><td style="font-weight:bold;vertical-align:top;">files</td><td style="vertical-align:top;">:</td><td><div><table><tr><td><div>/heiup/static/js/jquery.js</div></td></tr><tr><td><div>/heiup/static/css/calendar.css</div></td></tr><tr><td><div>/heiup/static/js/calendar.js</div></td></tr><tr><td><div>/heiup/static/js/web2py.js</div></td></tr></table></div></td></tr><tr><td style="font-weight:bold;vertical-align:top;">flash</td><td style="vertical-align:top;">:</td><td><div></div></td></tr><tr><td style="font-weight:bold;vertical-align:top;">form_label_separator</td><td style="vertical-align:top;">:</td><td><div></div></td></tr><tr><td style="font-weight:bold;vertical-align:top;">formstyle</td><td style="vertical-align:top;">:</td><td><div>bootstrap3_inline</div></td></tr><tr><td style="font-weight:bold;vertical-align:top;">generic_patterns</td><td style="vertical-align:top;">:</td><td><div><table></table></div></td></tr><tr><td style="font-weight:bold;vertical-align:top;">headers</td><td style="vertical-align:top;">:</td><td><div><table><tr><td style="font-weight:bold;vertical-align:top;">X-Powered-By</td><td style="vertical-align:top;">:</td><td><div>web2py</div></td></tr></table></div></td></tr><tr><td style="font-weight:bold;vertical-align:top;">menu</td><td style="vertical-align:top;">:</td><td><div><table></table></div></td></tr><tr><td style="font-weight:bold;vertical-align:top;">meta</td><td style="vertical-align:top;">:</td><td><div><table><tr><td style="font-weight:bold;vertical-align:top;">description</td><td style="vertical-align:top;">:</td><td><div>Heidelberg University Publishing ist ein Open-Access-Verlag f\xc3\xbcr wissenschaftliche Publikationen - qualit\xc3\xa4tsgepr\xc3\xbcft und in mehreren Formaten.</div></td></tr><tr><td style="font-weight:bold;vertical-align:top;">keywords</td><td style="vertical-align:top;">:</td><td><div>heiUP, Heidelberg University Publishing, Universit\xc3\xa4tsverlag Heidelberg, Universit\xc3\xa4tsbibliothek Heidelberg, Universit\xc3\xa4t Heidelberg, digitales Publizieren, Open Access, omp, python, mysql, knv, onix</div></td></tr></table></div></td></tr><tr><td style="font-weight:bold;vertical-align:top;">models_to_run</td><td style="vertical-align:top;">:</td><td><div><table><tr><td><div>^\\w+\\.py$</div></td></tr><tr><td><div>^catalog/\\w+\\.py$</div></td></tr><tr><td><div>^catalog/book/\\w+\\.py$</div></td></tr></table></div></td></tr><tr><td style="font-weight:bold;vertical-align:top;">postprocessing</td><td style="vertical-align:top;">:</td><td><div><table></table></div></td></tr><tr><td style="font-weight:bold;vertical-align:top;">session_client</td><td style="vertical-align:top;">:</td><td><div>147.142.85.51</div></td></tr><tr><td style="font-weight:bold;vertical-align:top;">session_cookie_compression_level</td><td style="vertical-align:top;">:</td><td><div>None</div></td></tr><tr><td style="font-weight:bold;vertical-align:top;">session_cookie_expires</td><td style="vertical-align:top;">:</td><td><div>None</div></td></tr><tr><td style="font-weight:bold;vertical-align:top;">session_cookie_key</td><td style="vertical-align:top;">:</td><td><div>None</div></td></tr><tr><td style="font-weight:bold;vertical-align:top;">session_data_name</td><td style="vertical-align:top;">:</td><td><div>session_data_heiup</div></td></tr><tr><td style="font-weight:bold;vertical-align:top;">session_file</td><td style="vertical-align:top;">:</td><td><div>&lt;open file &#x27;/home/wit/projects/web2py/applications/heiup/sessions/029/1d3/147.142.85.51-1854812e-992d-4249-ae5f-d10a8d98798c&#x27;, mode &#x27;rb+&#x27; at 0x7f316442f270&gt;</div></td></tr><tr><td style="font-weight:bold;vertical-align:top;">session_filename</td><td style="vertical-align:top;">:</td><td><div>/home/wit/projects/web2py/applications/heiup/sessions/147.142.85.51-1854812e-992d-4249-ae5f-d10a8d98798c</div></td></tr><tr><td style="font-weight:bold;vertical-align:top;">session_hash</td><td style="vertical-align:top;">:</td><td><div>d6312d2deb617bb40328596356548fab</div></td></tr><tr><td style="font-weight:bold;vertical-align:top;">session_id</td><td style="vertical-align:top;">:</td><td><div>147.142.85.51-1854812e-992d-4249-ae5f-d10a8d98798c</div></td></tr><tr><td style="font-weight:bold;vertical-align:top;">session_id_name</td><td style="vertical-align:top;">:</td><td><div>session_id_heiup</div></td></tr><tr><td style="font-weight:bold;vertical-align:top;">session_locked</td><td style="vertical-align:top;">:</td><td><div>True</div></td></tr><tr><td style="font-weight:bold;vertical-align:top;">session_masterapp</td><td style="vertical-align:top;">:</td><td><div>heiup</div></td></tr><tr><td style="font-weight:bold;vertical-align:top;">session_new</td><td style="vertical-align:top;">:</td><td><div>False</div></td></tr><tr><td style="font-weight:bold;vertical-align:top;">session_storage_type</td><td style="vertical-align:top;">:</td><td><div>file</div></td></tr><tr><td style="font-weight:bold;vertical-align:top;">status</td><td style="vertical-align:top;">:</td><td><div>200</div></td></tr><tr><td style="font-weight:bold;vertical-align:top;">subtitle</td><td style="vertical-align:top;">:</td><td><div></div></td></tr><tr><td style="font-weight:bold;vertical-align:top;">title</td><td style="vertical-align:top;">:</td><td><div>Heidelberg University Publishing - heiUP</div></td></tr><tr><td style="font-weight:bold;vertical-align:top;">view</td><td style="vertical-align:top;">:</td><td><div>catalog/book.html</div></td></tr></table></div>'
tRp122
sS'locals'
p123
(dp124
S'Service'
p125
S"<class 'gluon.tools.Service'>"
p126
sS'OBJECT'
p127
S"<class 'gluon.html.OBJECT'>"
p128
sS'chapters'
p129
S'<Rows (18)>'
p130
sS'SQLDB'
p131
S"<class 'pydal.base.DAL'>"
p132
sg115
S"<Storage {'forced_language': 'de'}>"
p133
sS'LINK'
p134
S"<class 'gluon.html.LINK'>"
p135
sS'BR'
p136
S"<class 'gluon.html.BR'>"
p137
sS'local_import'
p138
S'<function <lambda>>'
p139
sS'OPTGROUP'
p140
S"<class 'gluon.html.OPTGROUP'>"
p141
sS'__package__'
p142
S'None'
p143
sS'PRE'
p144
S"<class 'gluon.html.PRE'>"
p145
sS'IS_INT_IN_RANGE'
p146
S"<class 'gluon.validators.IS_INT_IN_RANGE'>"
p147
sS'left_sidebar_enabled'
p148
S'False'
p149
sS'IS_LOWER'
p150
S"<class 'gluon.validators.IS_LOWER'>"
p151
sS'IS_STRONG'
p152
S"<class 'gluon.validators.IS_STRONG'>"
p153
sS'type_dict'
p154
S"{32L: 'PDF', 34L: 'XML'}"
p155
sS'cache'
p156
S'<gluon.cache.Cache object>'
p157
sS'IS_IN_DB'
p158
S"<class 'gluon.validators.IS_IN_DB'>"
p159
sS'TAG'
p160
S'<gluon.html.__TAG__ object>'
p161
sS'SQLField'
p162
S"<class 'pydal.objects.Field'>"
p163
sS'mail'
p164
S'<gluon.tools.Mail object>'
p165
sS'BODY'
p166
S"<class 'gluon.html.BODY'>"
p167
sS'IS_DATE_IN_RANGE'
p168
S"<class 'gluon.validators.IS_DATE_IN_RANGE'>"
p169
sS'IFRAME'
p170
S"<class 'gluon.html.IFRAME'>"
p171
sS'URL'
p172
S'<function URL>'
p173
sS'__file__'
p174
S"'/home/wit/projects/web2py/applications/heiup/views/catalog/book.html'"
p175
sS'db'
p176
S'<DAL uri="mysql:******@localhost:3306/omp">'
p177
sS'auth'
p178
S'<gluon.tools.Auth object>'
p179
sS'P'
S"<class 'gluon.html.P'>"
p180
sS'request_client_sp'
p181
S"['147', '142', '85', '51']"
p182
sS'TFOOT'
p183
S"<class 'gluon.html.TFOOT'>"
p184
sS'XHTML'
p185
S"<class 'gluon.html.XHTML'>"
p186
sS'ON'
p187
S'True'
p188
sS'OL'
p189
S"<class 'gluon.html.OL'>"
p190
sS'TEXTAREA'
p191
S"<class 'gluon.html.TEXTAREA'>"
p192
sS'settings'
p193
S"<Storage {'layout_theme': 'Default', 'subtitle':...email_server': 'login', 'login_method': 'local'}>"
p194
sS'MENU'
p195
S"<class 'gluon.html.MENU'>"
p196
sS'IS_IMAGE'
p197
S"<class 'gluon.validators.IS_IMAGE'>"
p198
sS'EM'
p199
S"<class 'gluon.html.EM'>"
p200
sS'CODE'
p201
S"<class 'gluon.html.CODE'>"
p202
sS'HTTP'
p203
S"<class 'gluon.http.HTTP'>"
p204
sS'HR'
p205
S"<class 'gluon.html.HR'>"
p206
sS'IS_DATETIME'
p207
S"<class 'gluon.validators.IS_DATETIME'>"
p208
sS'Storage'
p209
S"<class 'gluon.storage.Storage'>"
p210
sS'STYLE'
p211
S"<class 'gluon.html.STYLE'>"
p212
sS'LABEL'
p213
S"<class 'gluon.html.LABEL'>"
p214
sS'CLEANUP'
p215
S"<class 'gluon.validators.CLEANUP'>"
p216
sS'plugins'
p217
S'<gluon.tools.PluginManager object>'
p218
sS'SELECT'
p219
S"<class 'gluon.html.SELECT'>"
p220
sS'author_bio'
p221
S"<Row {'setting_value': '<p>Dr. phil. Astrid Habe...chen Institut der Universit\\xc3\\xa4t Bern.</p>'}>"
p222
sS'CENTER'
p223
S"<class 'gluon.html.CENTER'>"
p224
sS'Crud'
p225
S"<class 'gluon.tools.Crud'>"
p226
sS'Auth'
p227
S"<class 'gluon.tools.Auth'>"
p228
sS'COL'
p229
S"<class 'gluon.html.COL'>"
p230
sS'__builtins__'
p231
S"{'ArithmeticError': <type 'exceptions.ArithmeticError'>, 'AssertionError': <type 'exceptions.AssertionError'>, 'AttributeError': <type 'exceptions.AttributeError'>, 'BaseException': <type 'exceptions.BaseException'>, 'BufferError': <type 'exceptions.BufferError'>, 'BytesWarning': <type 'exceptions.BytesWarning'>, 'DeprecationWarning': <type 'exceptions.DeprecationWarning'>, 'EOFError': <type 'exceptions.EOFError'>, 'Ellipsis': Ellipsis, 'EnvironmentError': <type 'exceptions.EnvironmentError'>, ...}"
p232
sS'HTML'
p233
S"<class 'gluon.html.HTML'>"
p234
sS'SQLFORM'
p235
S"<class 'gluon.sqlhtml.SQLFORM'>"
p236
sS'LOAD'
p237
S'<function LOAD>'
p238
sS'redirect'
p239
S'<function redirect>'
p240
sS'FIELDSET'
p241
S"<class 'gluon.html.FIELDSET'>"
p242
sS'IS_EQUAL_TO'
p243
S"<class 'gluon.validators.IS_EQUAL_TO'>"
p244
sS'embed64'
p245
S'<function embed64>'
p246
sS'IS_LIST_OF'
p247
S"<class 'gluon.validators.IS_LIST_OF'>"
p248
sS'__name__'
p249
S"'__restricted__'"
p250
sS'EMBED'
p251
S"<class 'gluon.html.EMBED'>"
p252
sS'myconf'
p253
S"{'forms': {'formstyle': 'bootstrap3_inline', 'se...eiup.uni-heidelberg.de', 'application': 'heiup'}}"
p254
sS'H2'
p255
S"<class 'gluon.html.H2'>"
p256
sS'H3'
p257
S"<class 'gluon.html.H3'>"
p258
sS'AppConfig'
p259
S'<function AppConfig>'
p260
sS'H1'
p261
S"<class 'gluon.html.H1'>"
p262
sS'H6'
p263
S"<class 'gluon.html.H6'>"
p264
sS'request_client'
p265
S"'147.142.85.xxx'"
p266
sS'H4'
p267
S"<class 'gluon.html.H4'>"
p268
sS'H5'
p269
S"<class 'gluon.html.H5'>"
p270
sS'UL'
p271
S"<class 'gluon.html.UL'>"
p272
sS'IS_UPPER'
p273
S"<class 'gluon.validators.IS_UPPER'>"
p274
sS'xmlescape'
p275
S'<function xmlescape>'
p276
sS'cover_image'
p277
S"'/heiup/static/monographs/43/simple/cover.jpg'"
p278
sS'IS_TIME'
p279
S"<class 'gluon.validators.IS_TIME'>"
p280
sS'subtitle'
p281
S"'Aristokratische Interaktion in der sp\\xc3\\xa4ten r\\xc3\\xb6mischen Republik und in der fr\\xc3\\xbchen Kaiserzeit'"
p282
sS'OPTION'
p283
S"<class 'gluon.html.OPTION'>"
p284
sS'TITLE'
p285
S"<class 'gluon.html.TITLE'>"
p286
sS'CRYPT'
p287
S"<class 'gluon.validators.CRYPT'>"
p288
sS'IS_EMPTY_OR'
p289
S"<class 'gluon.validators.IS_EMPTY_OR'>"
p290
sS'MARKMIN'
p291
S"<class 'gluon.html.MARKMIN'>"
p292
sS'INPUT'
p293
S"<class 'gluon.html.INPUT'>"
p294
sS'STRONG'
p295
S"<class 'gluon.html.STRONG'>"
p296
sS'mc2'
p297
S"'col-md-6'"
p298
sS'mc1'
p299
S"'col-md-9'"
p300
sS'mc0'
p301
S"'col-md-12'"
p302
sS'service'
p303
S'<gluon.tools.Service object>'
p304
sS'SCRIPT'
p305
S"<class 'gluon.html.SCRIPT'>"
p306
sS'IS_NOT_EMPTY'
p307
S"<class 'gluon.validators.IS_NOT_EMPTY'>"
p308
sS'TABLE'
p309
S"<class 'gluon.html.TABLE'>"
p310
sS'IS_IPV4'
p311
S"<class 'gluon.validators.IS_IPV4'>"
p312
sS'IS_LENGTH'
p313
S"<class 'gluon.validators.IS_LENGTH'>"
p314
sS'IS_IPV6'
p315
S"<class 'gluon.validators.IS_IPV6'>"
p316
sS'XML'
p317
S"<class 'gluon.html.XML'>"
p318
sS'B'
S"<class 'gluon.html.B'>"
p319
sS'IMG'
p320
S"<class 'gluon.html.IMG'>"
p321
sS'SQLTABLE'
p322
S"<class 'gluon.sqlhtml.SQLTABLE'>"
p323
sS'IS_MATCH'
p324
S"<class 'gluon.validators.IS_MATCH'>"
p325
sS'IS_ALPHANUMERIC'
p326
S"<class 'gluon.validators.IS_ALPHANUMERIC'>"
p327
sS'authors'
p328
S"'Astrid Habenstein'"
p329
sS'SPAN'
p330
S"<class 'gluon.html.SPAN'>"
p331
sS'IS_JSON'
p332
S"<class 'gluon.validators.IS_JSON'>"
p333
sS'IS_IPADDRESS'
p334
S"<class 'gluon.validators.IS_IPADDRESS'>"
p335
sS'IS_SLUG'
p336
S"<class 'gluon.validators.IS_SLUG'>"
p337
sg48
S"'\\nCopyright (c) 2015 Heidelberg University Librar...U GPL v3. For full terms see the file\\nLICENSE.md\\n'"
p338
sS'num'
p339
S'0'
sS'META'
p340
S"<class 'gluon.html.META'>"
p341
sS'BUTTON'
p342
S"<class 'gluon.html.BUTTON'>"
p343
sS'IS_DATE'
p344
S"<class 'gluon.validators.IS_DATE'>"
p345
sS'IS_EMAIL'
p346
S"<class 'gluon.validators.IS_EMAIL'>"
p347
sS'middle_column'
p348
S"'col-md-12'"
p349
sS'publication_formats'
p350
S'<Rows (2)>'
p351
sS'IS_FLOAT_IN_RANGE'
p352
S"<class 'gluon.validators.IS_FLOAT_IN_RANGE'>"
p353
sS'abstract'
p354
S"'<p>Der immensen ideellen Bedeutung, die der Stad...chte, ist Gegenstand der vorliegenden Studie.</p>'"
p355
sS'BEAUTIFY'
p356
S"<class 'gluon.html.BEAUTIFY'>"
p357
sS'TBODY'
p358
S"<class 'gluon.html.TBODY'>"
p359
sS'CAT'
p360
S"<class 'gluon.html.CAT'>"
p361
sS'Field'
p362
S"<class 'pydal.objects.Field'>"
p363
sS'IS_LIST_OF_EMAILS'
p364
S"<class 'gluon.validators.IS_LIST_OF_EMAILS'>"
p365
sS'DIV'
p366
S"<class 'gluon.html.DIV'>"
p367
sS'LEGEND'
p368
S"<class 'gluon.html.LEGEND'>"
p369
sS'COLGROUP'
p370
S"<class 'gluon.html.COLGROUP'>"
p371
sS'DAL'
p372
S"<class 'pydal.base.DAL'>"
p373
sS'ASSIGNJS'
p374
S'<function ASSIGNJS>'
p375
sS'TR'
p376
S"<class 'gluon.html.TR'>"
p377
sS'LI'
p378
S"<class 'gluon.html.LI'>"
p379
sS'right_sidebar_enabled'
p380
g149
sS'TH'
p381
S"<class 'gluon.html.TH'>"
p382
sS'TD'
p383
S"<class 'gluon.html.TD'>"
p384
sS'PluginManager'
p385
S"<class 'gluon.tools.PluginManager'>"
p386
sS'IS_URL'
p387
S"<class 'gluon.validators.IS_URL'>"
p388
sS'A'
S"<class 'gluon.html.A'>"
p389
sS'HEAD'
p390
S"<class 'gluon.html.HEAD'>"
p391
sS'IS_DATETIME_IN_RANGE'
p392
S"<class 'gluon.validators.IS_DATETIME_IN_RANGE'>"
p393
sS'FORM'
p394
S"<class 'gluon.html.FORM'>"
p395
sS'I'
S"<class 'gluon.html.I'>"
p396
sS'crud'
p397
S'<gluon.tools.Crud object>'
p398
sS'cleanTitle'
p399
S"'Abwesenheit von Rom'"
p400
sS'IS_NOT_IN_DB'
p401
S"<class 'gluon.validators.IS_NOT_IN_DB'>"
p402
sg121
S"<Storage {'body': <cStringIO.StringO object at 0...at 0x7f316416b8c0>, 'view': 'catalog/book.html'}>"
p403
sS'THEAD'
p404
S"<class 'gluon.html.THEAD'>"
p405
sS'ANY_OF'
p406
S"<class 'gluon.validators.ANY_OF'>"
p407
sS'IS_NULL_OR'
p408
S"<class 'gluon.validators.IS_EMPTY_OR'>"
p409
sS'i'
S"<Row {'submission_chapter_settings': {'setting_v...9L}, 'submission_chapters': {'chapter_id': 41L}}>"
p410
sg56
S"<Storage {'_vars': <Storage {}>, 'function': 'bo...'/home/wit/projects/web2py/applications/heiup/'}>"
p411
sS'IS_EXPR'
p412
S"<class 'gluon.validators.IS_EXPR'>"
p413
sS'T'
S'<gluon.languages.translator object>'
p414
sS'IS_IN_SET'
p415
S"<class 'gluon.validators.IS_IN_SET'>"
p416
sS'IS_UPLOAD_FILENAME'
p417
S"<class 'gluon.validators.IS_UPLOAD_FILENAME'>"
p418
sS'TT'
p419
S"<class 'gluon.html.TT'>"
p420
sS're'
p421
S"<module 're' from '/usr/lib/python2.7/re.pyc'>"
p422
sS'IS_DECIMAL_IN_RANGE'
p423
S"<class 'gluon.validators.IS_DECIMAL_IN_RANGE'>"
p424
sssS'traceback'
p425
S'Traceback (most recent call last):\n  File "/home/wit/projects/web2py/gluon/restricted.py", line 227, in restricted\n    exec ccode in environment\n  File "/home/wit/projects/web2py/applications/heiup/views/catalog/book.html", line 227, in <module>\nNameError: name \'slen\' is not defined\n'
p426
s.